Component: ARM Compiler 5.06 update 6 (build 750) Tool: armlink [4d35ed]

==============================================================================

Section Cross References

    main.o(i.MainTask) refers to cpu_core.o(i.CPU_Init) for CPU_Init
    main.o(i.MainTask) refers to os_stat.o(i.OSStatTaskCPUUsageInit) for OSStatTaskCPUUsageInit
    main.o(i.MainTask) refers to wled.o(i.wLed_IdInit) for wLed_IdInit
    main.o(i.MainTask) refers to wserial.o(i.wSerial_Init) for wSerial_Init
    main.o(i.MainTask) refers to wserial.o(i.wSerial_Receive) for wSerial_Receive
    main.o(i.MainTask) refers to wserial.o(i.wSerial_Printf) for wSerial_Printf
    main.o(i.MainTask) refers to wserial.o(i.wSerial_Transmit) for wSerial_Transmit
    main.o(i.MainTask) refers to main.o(.bss) for data
    main.o(i.main) refers to wsys.o(i.wSys_ClockConfig) for wSys_ClockConfig
    main.o(i.main) refers to wsys.o(i.wSys_GetClkFreq) for wSys_GetClkFreq
    main.o(i.main) refers to os_cpu_c.o(i.OS_CPU_SysTickInit) for OS_CPU_SysTickInit
    main.o(i.main) refers to os_core.o(i.OSInit) for OSInit
    main.o(i.main) refers to os_task.o(i.OSTaskCreate) for OSTaskCreate
    main.o(i.main) refers to os_core.o(i.OSStart) for OSStart
    main.o(i.main) refers to startup_stm32f405xx.o(RESET) for __Vectors
    main.o(i.main) refers to main.o(.bss) for Main_TaskStk
    main.o(i.main) refers to main.o(i.MainTask) for MainTask
    wled.o(i.wLed_IdInit) refers to os_tmr.o(i.OSTmrCreate) for OSTmrCreate
    wled.o(i.wLed_IdInit) refers to wgpio.o(i.wGpio_putInit) for wGpio_putInit
    wled.o(i.wLed_IdInit) refers to wled.o(i.wLed_SetIdStatus) for wLed_SetIdStatus
    wled.o(i.wLed_IdInit) refers to wled.o(.bss) for led
    wled.o(i.wLed_IdInit) refers to wled.o(i.wLed_TmrOn) for wLed_TmrOn
    wled.o(i.wLed_IdInit) refers to wled.o(i.wLed_TmrOff) for wLed_TmrOff
    wled.o(i.wLed_Init) refers to os_tmr.o(i.OSTmrCreate) for OSTmrCreate
    wled.o(i.wLed_Init) refers to wgpio.o(i.wGpio_putInit) for wGpio_putInit
    wled.o(i.wLed_Init) refers to wled.o(i.wLed_SetStatus) for wLed_SetStatus
    wled.o(i.wLed_Init) refers to wled.o(i.wLed_TmrOn) for wLed_TmrOn
    wled.o(i.wLed_Init) refers to wled.o(i.wLed_TmrOff) for wLed_TmrOff
    wled.o(i.wLed_SetIdStatus) refers to wled.o(i.wLed_TmrOn) for wLed_TmrOn
    wled.o(i.wLed_SetIdStatus) refers to wled.o(.bss) for led
    wled.o(i.wLed_SetStatus) refers to wled.o(i.wLed_TmrOn) for wLed_TmrOn
    wled.o(i.wLed_TmrOff) refers to wgpio.o(i.wGpio_putWrite) for wGpio_putWrite
    wled.o(i.wLed_TmrOff) refers to os_tmr.o(i.OSTmrSet) for OSTmrSet
    wled.o(i.wLed_TmrOff) refers to os_tmr.o(i.OSTmrStart) for OSTmrStart
    wled.o(i.wLed_TmrOff) refers to wled.o(i.wLed_TmrOn) for wLed_TmrOn
    wled.o(i.wLed_TmrOn) refers to wgpio.o(i.wGpio_putWrite) for wGpio_putWrite
    wled.o(i.wLed_TmrOn) refers to os_tmr.o(i.OSTmrSet) for OSTmrSet
    wled.o(i.wLed_TmrOn) refers to os_tmr.o(i.OSTmrStart) for OSTmrStart
    wled.o(i.wLed_TmrOn) refers to wled.o(i.wLed_TmrOff) for wLed_TmrOff
    wserial.o(i.wSerial_CSSInit) refers to wuart.o(i.wUart_CSSInit) for wUart_CSSInit
    wserial.o(i.wSerial_CSSInit) refers to wserial.o(.bss) for Serial
    wserial.o(i.wSerial_Init) refers to os_sem.o(i.OSSemCreate) for OSSemCreate
    wserial.o(i.wSerial_Init) refers to wuart.o(i.wUart_DMAInit) for wUart_DMAInit
    wserial.o(i.wSerial_Init) refers to wuart.o(i.wUart_SetCallback) for wUart_SetCallback
    wserial.o(i.wSerial_Init) refers to wserial.o(.bss) for Serial
    wserial.o(i.wSerial_Init) refers to wserial.o(i.wSerial_RxIdleIRQHandler) for wSerial_RxIdleIRQHandler
    wserial.o(i.wSerial_Init) refers to wserial.o(i.wSerial_TxIRQHandler) for wSerial_TxIRQHandler
    wserial.o(i.wSerial_Printf) refers to h1_alloc.o(.text) for malloc
    wserial.o(i.wSerial_Printf) refers to wsprintf.o(i.wvsprintf) for wvsprintf
    wserial.o(i.wSerial_Printf) refers to wserial.o(i.wSerial_Transmit) for wSerial_Transmit
    wserial.o(i.wSerial_Printf) refers to h1_free.o(.text) for free
    wserial.o(i.wSerial_PrintfHex) refers to h1_alloc.o(.text) for malloc
    wserial.o(i.wSerial_PrintfHex) refers to wsprintf.o(i.wsprintf) for wsprintf
    wserial.o(i.wSerial_PrintfHex) refers to wserial.o(i.wSerial_Transmit) for wSerial_Transmit
    wserial.o(i.wSerial_PrintfHex) refers to h1_free.o(.text) for free
    wserial.o(i.wSerial_Receive) refers to os_sem.o(i.OSSemSet) for OSSemSet
    wserial.o(i.wSerial_Receive) refers to wuart.o(i.wUart_DMAReceive) for wUart_DMAReceive
    wserial.o(i.wSerial_Receive) refers to os_sem.o(i.OSSemPend) for OSSemPend
    wserial.o(i.wSerial_Receive) refers to wuart.o(i.wUart_AbortReceive) for wUart_AbortReceive
    wserial.o(i.wSerial_Receive) refers to wserial.o(.bss) for Serial
    wserial.o(i.wSerial_RxIdleIRQHandler) refers to os_sem.o(i.OSSemPost) for OSSemPost
    wserial.o(i.wSerial_RxIdleIRQHandler) refers to wserial.o(.bss) for Serial
    wserial.o(i.wSerial_Transmit) refers to os_sem.o(i.OSSemSet) for OSSemSet
    wserial.o(i.wSerial_Transmit) refers to wuart.o(i.wUart_DMATransmit) for wUart_DMATransmit
    wserial.o(i.wSerial_Transmit) refers to os_sem.o(i.OSSemPend) for OSSemPend
    wserial.o(i.wSerial_Transmit) refers to wserial.o(.bss) for Serial
    wserial.o(i.wSerial_TransmitReceive) refers to os_sem.o(i.OSSemSet) for OSSemSet
    wserial.o(i.wSerial_TransmitReceive) refers to wuart.o(i.wUart_DMATransmit) for wUart_DMATransmit
    wserial.o(i.wSerial_TransmitReceive) refers to os_sem.o(i.OSSemPend) for OSSemPend
    wserial.o(i.wSerial_TransmitReceive) refers to wuart.o(i.wUart_DMAReceive) for wUart_DMAReceive
    wserial.o(i.wSerial_TransmitReceive) refers to wuart.o(i.wUart_AbortReceive) for wUart_AbortReceive
    wserial.o(i.wSerial_TransmitReceive) refers to wserial.o(.bss) for Serial
    wserial.o(i.wSerial_TxIRQHandler) refers to os_sem.o(i.OSSemPost) for OSSemPost
    wserial.o(i.wSerial_TxIRQHandler) refers to wserial.o(.bss) for Serial
    wgpio.o(i.EXTI0_IRQHandler) refers to os_core.o(i.OSIntEnter) for OSIntEnter
    wgpio.o(i.EXTI0_IRQHandler) refers to stm32f4xx_hal_gpio.o(i.HAL_GPIO_EXTI_IRQHandler) for HAL_GPIO_EXTI_IRQHandler
    wgpio.o(i.EXTI0_IRQHandler) refers to stm32f4xx_hal_cortex.o(i.HAL_NVIC_ClearPendingIRQ) for HAL_NVIC_ClearPendingIRQ
    wgpio.o(i.EXTI0_IRQHandler) refers to os_core.o(i.OSIntExit) for OSIntExit
    wgpio.o(i.EXTI15_10_IRQHandler) refers to os_core.o(i.OSIntEnter) for OSIntEnter
    wgpio.o(i.EXTI15_10_IRQHandler) refers to stm32f4xx_hal_gpio.o(i.HAL_GPIO_EXTI_IRQHandler) for HAL_GPIO_EXTI_IRQHandler
    wgpio.o(i.EXTI15_10_IRQHandler) refers to stm32f4xx_hal_cortex.o(i.HAL_NVIC_ClearPendingIRQ) for HAL_NVIC_ClearPendingIRQ
    wgpio.o(i.EXTI15_10_IRQHandler) refers to os_core.o(i.OSIntExit) for OSIntExit
    wgpio.o(i.EXTI1_IRQHandler) refers to os_core.o(i.OSIntEnter) for OSIntEnter
    wgpio.o(i.EXTI1_IRQHandler) refers to stm32f4xx_hal_gpio.o(i.HAL_GPIO_EXTI_IRQHandler) for HAL_GPIO_EXTI_IRQHandler
    wgpio.o(i.EXTI1_IRQHandler) refers to stm32f4xx_hal_cortex.o(i.HAL_NVIC_ClearPendingIRQ) for HAL_NVIC_ClearPendingIRQ
    wgpio.o(i.EXTI1_IRQHandler) refers to os_core.o(i.OSIntExit) for OSIntExit
    wgpio.o(i.EXTI2_IRQHandler) refers to os_core.o(i.OSIntEnter) for OSIntEnter
    wgpio.o(i.EXTI2_IRQHandler) refers to stm32f4xx_hal_gpio.o(i.HAL_GPIO_EXTI_IRQHandler) for HAL_GPIO_EXTI_IRQHandler
    wgpio.o(i.EXTI2_IRQHandler) refers to stm32f4xx_hal_cortex.o(i.HAL_NVIC_ClearPendingIRQ) for HAL_NVIC_ClearPendingIRQ
    wgpio.o(i.EXTI2_IRQHandler) refers to os_core.o(i.OSIntExit) for OSIntExit
    wgpio.o(i.EXTI3_IRQHandler) refers to os_core.o(i.OSIntEnter) for OSIntEnter
    wgpio.o(i.EXTI3_IRQHandler) refers to stm32f4xx_hal_gpio.o(i.HAL_GPIO_EXTI_IRQHandler) for HAL_GPIO_EXTI_IRQHandler
    wgpio.o(i.EXTI3_IRQHandler) refers to stm32f4xx_hal_cortex.o(i.HAL_NVIC_ClearPendingIRQ) for HAL_NVIC_ClearPendingIRQ
    wgpio.o(i.EXTI3_IRQHandler) refers to os_core.o(i.OSIntExit) for OSIntExit
    wgpio.o(i.EXTI4_IRQHandler) refers to os_core.o(i.OSIntEnter) for OSIntEnter
    wgpio.o(i.EXTI4_IRQHandler) refers to stm32f4xx_hal_gpio.o(i.HAL_GPIO_EXTI_IRQHandler) for HAL_GPIO_EXTI_IRQHandler
    wgpio.o(i.EXTI4_IRQHandler) refers to stm32f4xx_hal_cortex.o(i.HAL_NVIC_ClearPendingIRQ) for HAL_NVIC_ClearPendingIRQ
    wgpio.o(i.EXTI4_IRQHandler) refers to os_core.o(i.OSIntExit) for OSIntExit
    wgpio.o(i.EXTI9_5_IRQHandler) refers to os_core.o(i.OSIntEnter) for OSIntEnter
    wgpio.o(i.EXTI9_5_IRQHandler) refers to stm32f4xx_hal_gpio.o(i.HAL_GPIO_EXTI_IRQHandler) for HAL_GPIO_EXTI_IRQHandler
    wgpio.o(i.EXTI9_5_IRQHandler) refers to stm32f4xx_hal_cortex.o(i.HAL_NVIC_ClearPendingIRQ) for HAL_NVIC_ClearPendingIRQ
    wgpio.o(i.EXTI9_5_IRQHandler) refers to os_core.o(i.OSIntExit) for OSIntExit
    wgpio.o(i.HAL_GPIO_EXTI_Callback) refers to wgpio.o(.bss) for wExti
    wgpio.o(i.wExti_SetCallback) refers to wgpio.o(.bss) for wExti
    wgpio.o(i.wGpio_Init) refers to stm32f4xx_hal_gpio.o(i.HAL_GPIO_Init) for HAL_GPIO_Init
    wgpio.o(i.wGpio_Init) refers to stm32f4xx_hal_cortex.o(i.HAL_NVIC_SetPriority) for HAL_NVIC_SetPriority
    wgpio.o(i.wGpio_Init) refers to stm32f4xx_hal_cortex.o(i.HAL_NVIC_EnableIRQ) for HAL_NVIC_EnableIRQ
    wgpio.o(i.wGpio_putInit) refers to wgpio.o(i.wGpio_Init) for wGpio_Init
    wgpio.o(i.wGpio_putRead) refers to stm32f4xx_hal_gpio.o(i.HAL_GPIO_ReadPin) for HAL_GPIO_ReadPin
    wgpio.o(i.wGpio_putWrite) refers to stm32f4xx_hal_gpio.o(i.HAL_GPIO_WritePin) for HAL_GPIO_WritePin
    wgpio.o(i.wGpio_putWrite) refers to stm32f4xx_hal_gpio.o(i.HAL_GPIO_TogglePin) for HAL_GPIO_TogglePin
    wit.o(i.SysTick_Handler) refers to stm32f4xx_hal.o(i.HAL_IncTick) for HAL_IncTick
    wit.o(i.SysTick_Handler) refers to os_cpu_c.o(i.OS_CPU_SysTickHandler) for OS_CPU_SysTickHandler
    wsys.o(i.HAL_MspInit) refers to stm32f4xx_hal_cortex.o(i.HAL_NVIC_SetPriorityGrouping) for HAL_NVIC_SetPriorityGrouping
    wsys.o(i.HAL_MspInit) refers to stm32f4xx_hal_cortex.o(i.HAL_NVIC_SetPriority) for HAL_NVIC_SetPriority
    wsys.o(i.HAL_MspInit) refers to os_tmr.o(i.OSTmrCreate) for OSTmrCreate
    wsys.o(i.HAL_MspInit) refers to wsys.o(i.wSys_TmrReset) for wSys_TmrReset
    wsys.o(i.HAL_MspInit) refers to wsys.o(.bss) for Tmr_Sys
    wsys.o(i.wSys_ClockConfig) refers to rt_memclr_w.o(.text) for __aeabi_memclr4
    wsys.o(i.wSys_ClockConfig) refers to stm32f4xx_hal.o(i.HAL_Init) for HAL_Init
    wsys.o(i.wSys_ClockConfig) refers to stm32f4xx_hal_rcc.o(i.HAL_RCC_OscConfig) for HAL_RCC_OscConfig
    wsys.o(i.wSys_ClockConfig) refers to stm32f4xx_hal_rcc.o(i.HAL_RCC_ClockConfig) for HAL_RCC_ClockConfig
    wsys.o(i.wSys_ClockConfig) refers to stm32f4xx_hal_rcc.o(i.HAL_RCC_EnableCSS) for HAL_RCC_EnableCSS
    wsys.o(i.wSys_ClockConfig) refers to stm32f4xx_hal.o(i.HAL_GetREVID) for HAL_GetREVID
    wsys.o(i.wSys_ClockConfig) refers to stm32f4xx_hal_rcc.o(i.HAL_RCC_GetHCLKFreq) for HAL_RCC_GetHCLKFreq
    wsys.o(i.wSys_ClockConfig) refers to stm32f4xx_hal_cortex.o(i.HAL_SYSTICK_Config) for HAL_SYSTICK_Config
    wsys.o(i.wSys_ClockConfig) refers to stm32f4xx_hal_cortex.o(i.HAL_SYSTICK_CLKSourceConfig) for HAL_SYSTICK_CLKSourceConfig
    wsys.o(i.wSys_DisAll) refers to wuart.o(i.wUart_DisAll) for wUart_DisAll
    wsys.o(i.wSys_GetClkFreq) refers to stm32f4xx_hal_rcc.o(i.HAL_RCC_GetHCLKFreq) for HAL_RCC_GetHCLKFreq
    wsys.o(i.wSys_Reset) refers to os_tmr.o(i.OSTmrSet) for OSTmrSet
    wsys.o(i.wSys_Reset) refers to os_tmr.o(i.OSTmrStart) for OSTmrStart
    wsys.o(i.wSys_Reset) refers to wsys.o(i.wSys_TmrReset) for wSys_TmrReset
    wsys.o(i.wSys_Reset) refers to wsys.o(.bss) for Tmr_Sys
    wsys.o(i.wSys_ResetCheck) refers to wserial.o(i.wSerial_Printf) for wSerial_Printf
    wsys.o(i.wSys_TmrReset) refers to stm32f4xx_hal_rcc_ex.o(i.HAL_RCC_DeInit) for HAL_RCC_DeInit
    wsys.o(i.wSys_TmrReset) refers to stm32f4xx_hal_cortex.o(i.HAL_NVIC_SystemReset) for HAL_NVIC_SystemReset
    wuart.o(i.HAL_UART_MspDeInit) refers to stm32f4xx_hal_dma.o(i.HAL_DMA_DeInit) for HAL_DMA_DeInit
    wuart.o(i.HAL_UART_MspDeInit) refers to stm32f4xx_hal_cortex.o(i.HAL_NVIC_DisableIRQ) for HAL_NVIC_DisableIRQ
    wuart.o(i.HAL_UART_RxCpltCallback_Idle) refers to wuart.o(i.wUart_AbortReceive) for wUart_AbortReceive
    wuart.o(i.HAL_UART_RxCpltCallback_Idle) refers to wuart.o(.data) for wUart_ListPtr
    wuart.o(i.HAL_UART_TxCpltCallback) refers to wuart.o(i.wUart_CSSEnable) for wUart_CSSEnable
    wuart.o(i.HAL_UART_TxCpltCallback) refers to wuart.o(.data) for wUart_ListPtr
    wuart.o(i.UART4_IRQHandler) refers to os_core.o(i.OSIntEnter) for OSIntEnter
    wuart.o(i.UART4_IRQHandler) refers to wuart.o(i.HAL_UART_RxCpltCallback_Idle) for HAL_UART_RxCpltCallback_Idle
    wuart.o(i.UART4_IRQHandler) refers to stm32f4xx_hal_uart.o(i.HAL_UART_IRQHandler) for HAL_UART_IRQHandler
    wuart.o(i.UART4_IRQHandler) refers to stm32f4xx_hal_cortex.o(i.HAL_NVIC_ClearPendingIRQ) for HAL_NVIC_ClearPendingIRQ
    wuart.o(i.UART4_IRQHandler) refers to os_core.o(i.OSIntExit) for OSIntExit
    wuart.o(i.UART4_IRQHandler) refers to wuart.o(.bss) for Int_huart
    wuart.o(i.UART5_IRQHandler) refers to os_core.o(i.OSIntEnter) for OSIntEnter
    wuart.o(i.UART5_IRQHandler) refers to wuart.o(i.HAL_UART_RxCpltCallback_Idle) for HAL_UART_RxCpltCallback_Idle
    wuart.o(i.UART5_IRQHandler) refers to stm32f4xx_hal_uart.o(i.HAL_UART_IRQHandler) for HAL_UART_IRQHandler
    wuart.o(i.UART5_IRQHandler) refers to stm32f4xx_hal_cortex.o(i.HAL_NVIC_ClearPendingIRQ) for HAL_NVIC_ClearPendingIRQ
    wuart.o(i.UART5_IRQHandler) refers to os_core.o(i.OSIntExit) for OSIntExit
    wuart.o(i.UART5_IRQHandler) refers to wuart.o(.bss) for Int_huart
    wuart.o(i.USART1_IRQHandler) refers to os_core.o(i.OSIntEnter) for OSIntEnter
    wuart.o(i.USART1_IRQHandler) refers to wuart.o(i.HAL_UART_RxCpltCallback_Idle) for HAL_UART_RxCpltCallback_Idle
    wuart.o(i.USART1_IRQHandler) refers to stm32f4xx_hal_uart.o(i.HAL_UART_IRQHandler) for HAL_UART_IRQHandler
    wuart.o(i.USART1_IRQHandler) refers to stm32f4xx_hal_cortex.o(i.HAL_NVIC_ClearPendingIRQ) for HAL_NVIC_ClearPendingIRQ
    wuart.o(i.USART1_IRQHandler) refers to os_core.o(i.OSIntExit) for OSIntExit
    wuart.o(i.USART1_IRQHandler) refers to wuart.o(.bss) for Int_huart
    wuart.o(i.USART2_IRQHandler) refers to os_core.o(i.OSIntEnter) for OSIntEnter
    wuart.o(i.USART2_IRQHandler) refers to wuart.o(i.HAL_UART_RxCpltCallback_Idle) for HAL_UART_RxCpltCallback_Idle
    wuart.o(i.USART2_IRQHandler) refers to stm32f4xx_hal_uart.o(i.HAL_UART_IRQHandler) for HAL_UART_IRQHandler
    wuart.o(i.USART2_IRQHandler) refers to stm32f4xx_hal_cortex.o(i.HAL_NVIC_ClearPendingIRQ) for HAL_NVIC_ClearPendingIRQ
    wuart.o(i.USART2_IRQHandler) refers to os_core.o(i.OSIntExit) for OSIntExit
    wuart.o(i.USART2_IRQHandler) refers to wuart.o(.bss) for Int_huart
    wuart.o(i.USART3_IRQHandler) refers to os_core.o(i.OSIntEnter) for OSIntEnter
    wuart.o(i.USART3_IRQHandler) refers to wuart.o(i.HAL_UART_RxCpltCallback_Idle) for HAL_UART_RxCpltCallback_Idle
    wuart.o(i.USART3_IRQHandler) refers to stm32f4xx_hal_uart.o(i.HAL_UART_IRQHandler) for HAL_UART_IRQHandler
    wuart.o(i.USART3_IRQHandler) refers to stm32f4xx_hal_cortex.o(i.HAL_NVIC_ClearPendingIRQ) for HAL_NVIC_ClearPendingIRQ
    wuart.o(i.USART3_IRQHandler) refers to os_core.o(i.OSIntExit) for OSIntExit
    wuart.o(i.USART3_IRQHandler) refers to wuart.o(.bss) for Int_huart
    wuart.o(i.USART6_IRQHandler) refers to os_core.o(i.OSIntEnter) for OSIntEnter
    wuart.o(i.USART6_IRQHandler) refers to wuart.o(i.HAL_UART_RxCpltCallback_Idle) for HAL_UART_RxCpltCallback_Idle
    wuart.o(i.USART6_IRQHandler) refers to stm32f4xx_hal_uart.o(i.HAL_UART_IRQHandler) for HAL_UART_IRQHandler
    wuart.o(i.USART6_IRQHandler) refers to stm32f4xx_hal_cortex.o(i.HAL_NVIC_ClearPendingIRQ) for HAL_NVIC_ClearPendingIRQ
    wuart.o(i.USART6_IRQHandler) refers to os_core.o(i.OSIntExit) for OSIntExit
    wuart.o(i.USART6_IRQHandler) refers to wuart.o(.bss) for Int_huart
    wuart.o(i.wUart_AbortReceive) refers to stm32f4xx_hal_uart.o(i.HAL_UART_AbortReceive_IT) for HAL_UART_AbortReceive_IT
    wuart.o(i.wUart_CSSEnable) refers to wgpio.o(i.wGpio_putWrite) for wGpio_putWrite
    wuart.o(i.wUart_CSSEnable) refers to wuart.o(.data) for wUart_ListPtr
    wuart.o(i.wUart_CSSInit) refers to wgpio.o(i.wGpio_putInit) for wGpio_putInit
    wuart.o(i.wUart_CSSInit) refers to wgpio.o(i.wGpio_putWrite) for wGpio_putWrite
    wuart.o(i.wUart_DMAInit) refers to wuart.o(i.wUart_Init) for wUart_Init
    wuart.o(i.wUart_DMAInit) refers to wdma.o(i.wDma_Init) for wDma_Init
    wuart.o(i.wUart_DMAReceive) refers to wuart.o(i.wUart_CSSEnable) for wUart_CSSEnable
    wuart.o(i.wUart_DMAReceive) refers to stm32f4xx_hal_uart.o(i.HAL_UART_Receive_DMA) for HAL_UART_Receive_DMA
    wuart.o(i.wUart_DMATransmit) refers to wuart.o(i.wUart_CSSEnable) for wUart_CSSEnable
    wuart.o(i.wUart_DMATransmit) refers to stm32f4xx_hal_uart.o(i.HAL_UART_Transmit_DMA) for HAL_UART_Transmit_DMA
    wuart.o(i.wUart_DisAll) refers to stm32f4xx_hal_uart.o(i.HAL_UART_DeInit) for HAL_UART_DeInit
    wuart.o(i.wUart_DisAll) refers to wuart.o(.bss) for Int_huart
    wuart.o(i.wUart_Init) refers to wgpio.o(i.wGpio_Init) for wGpio_Init
    wuart.o(i.wUart_Init) refers to stm32f4xx_hal_cortex.o(i.HAL_NVIC_SetPriority) for HAL_NVIC_SetPriority
    wuart.o(i.wUart_Init) refers to stm32f4xx_hal_cortex.o(i.HAL_NVIC_EnableIRQ) for HAL_NVIC_EnableIRQ
    wuart.o(i.wUart_Init) refers to wuart.o(i.wUart_List) for wUart_List
    wuart.o(i.wUart_Init) refers to stm32f4xx_hal_uart.o(i.HAL_UART_Init) for HAL_UART_Init
    wuart.o(i.wUart_Init) refers to wuart.o(.bss) for Int_huart
    wuart.o(i.wUart_List) refers to wuart.o(.data) for wUart_ListPtr
    wdma.o(i.DMA1_Stream0_IRQHandler) refers to os_core.o(i.OSIntEnter) for OSIntEnter
    wdma.o(i.DMA1_Stream0_IRQHandler) refers to stm32f4xx_hal_dma.o(i.HAL_DMA_IRQHandler) for HAL_DMA_IRQHandler
    wdma.o(i.DMA1_Stream0_IRQHandler) refers to stm32f4xx_hal_cortex.o(i.HAL_NVIC_ClearPendingIRQ) for HAL_NVIC_ClearPendingIRQ
    wdma.o(i.DMA1_Stream0_IRQHandler) refers to os_core.o(i.OSIntExit) for OSIntExit
    wdma.o(i.DMA1_Stream0_IRQHandler) refers to wdma.o(.bss) for Int_hdma1
    wdma.o(i.DMA1_Stream1_IRQHandler) refers to os_core.o(i.OSIntEnter) for OSIntEnter
    wdma.o(i.DMA1_Stream1_IRQHandler) refers to stm32f4xx_hal_dma.o(i.HAL_DMA_IRQHandler) for HAL_DMA_IRQHandler
    wdma.o(i.DMA1_Stream1_IRQHandler) refers to stm32f4xx_hal_cortex.o(i.HAL_NVIC_ClearPendingIRQ) for HAL_NVIC_ClearPendingIRQ
    wdma.o(i.DMA1_Stream1_IRQHandler) refers to os_core.o(i.OSIntExit) for OSIntExit
    wdma.o(i.DMA1_Stream1_IRQHandler) refers to wdma.o(.bss) for Int_hdma1
    wdma.o(i.DMA1_Stream2_IRQHandler) refers to os_core.o(i.OSIntEnter) for OSIntEnter
    wdma.o(i.DMA1_Stream2_IRQHandler) refers to stm32f4xx_hal_dma.o(i.HAL_DMA_IRQHandler) for HAL_DMA_IRQHandler
    wdma.o(i.DMA1_Stream2_IRQHandler) refers to stm32f4xx_hal_cortex.o(i.HAL_NVIC_ClearPendingIRQ) for HAL_NVIC_ClearPendingIRQ
    wdma.o(i.DMA1_Stream2_IRQHandler) refers to os_core.o(i.OSIntExit) for OSIntExit
    wdma.o(i.DMA1_Stream2_IRQHandler) refers to wdma.o(.bss) for Int_hdma1
    wdma.o(i.DMA1_Stream3_IRQHandler) refers to os_core.o(i.OSIntEnter) for OSIntEnter
    wdma.o(i.DMA1_Stream3_IRQHandler) refers to stm32f4xx_hal_dma.o(i.HAL_DMA_IRQHandler) for HAL_DMA_IRQHandler
    wdma.o(i.DMA1_Stream3_IRQHandler) refers to stm32f4xx_hal_cortex.o(i.HAL_NVIC_ClearPendingIRQ) for HAL_NVIC_ClearPendingIRQ
    wdma.o(i.DMA1_Stream3_IRQHandler) refers to os_core.o(i.OSIntExit) for OSIntExit
    wdma.o(i.DMA1_Stream3_IRQHandler) refers to wdma.o(.bss) for Int_hdma1
    wdma.o(i.DMA1_Stream4_IRQHandler) refers to os_core.o(i.OSIntEnter) for OSIntEnter
    wdma.o(i.DMA1_Stream4_IRQHandler) refers to stm32f4xx_hal_dma.o(i.HAL_DMA_IRQHandler) for HAL_DMA_IRQHandler
    wdma.o(i.DMA1_Stream4_IRQHandler) refers to stm32f4xx_hal_cortex.o(i.HAL_NVIC_ClearPendingIRQ) for HAL_NVIC_ClearPendingIRQ
    wdma.o(i.DMA1_Stream4_IRQHandler) refers to os_core.o(i.OSIntExit) for OSIntExit
    wdma.o(i.DMA1_Stream4_IRQHandler) refers to wdma.o(.bss) for Int_hdma1
    wdma.o(i.DMA1_Stream5_IRQHandler) refers to os_core.o(i.OSIntEnter) for OSIntEnter
    wdma.o(i.DMA1_Stream5_IRQHandler) refers to stm32f4xx_hal_dma.o(i.HAL_DMA_IRQHandler) for HAL_DMA_IRQHandler
    wdma.o(i.DMA1_Stream5_IRQHandler) refers to stm32f4xx_hal_cortex.o(i.HAL_NVIC_ClearPendingIRQ) for HAL_NVIC_ClearPendingIRQ
    wdma.o(i.DMA1_Stream5_IRQHandler) refers to os_core.o(i.OSIntExit) for OSIntExit
    wdma.o(i.DMA1_Stream5_IRQHandler) refers to wdma.o(.bss) for Int_hdma1
    wdma.o(i.DMA1_Stream6_IRQHandler) refers to os_core.o(i.OSIntEnter) for OSIntEnter
    wdma.o(i.DMA1_Stream6_IRQHandler) refers to stm32f4xx_hal_dma.o(i.HAL_DMA_IRQHandler) for HAL_DMA_IRQHandler
    wdma.o(i.DMA1_Stream6_IRQHandler) refers to stm32f4xx_hal_cortex.o(i.HAL_NVIC_ClearPendingIRQ) for HAL_NVIC_ClearPendingIRQ
    wdma.o(i.DMA1_Stream6_IRQHandler) refers to os_core.o(i.OSIntExit) for OSIntExit
    wdma.o(i.DMA1_Stream6_IRQHandler) refers to wdma.o(.bss) for Int_hdma1
    wdma.o(i.DMA1_Stream7_IRQHandler) refers to os_core.o(i.OSIntEnter) for OSIntEnter
    wdma.o(i.DMA1_Stream7_IRQHandler) refers to stm32f4xx_hal_dma.o(i.HAL_DMA_IRQHandler) for HAL_DMA_IRQHandler
    wdma.o(i.DMA1_Stream7_IRQHandler) refers to stm32f4xx_hal_cortex.o(i.HAL_NVIC_ClearPendingIRQ) for HAL_NVIC_ClearPendingIRQ
    wdma.o(i.DMA1_Stream7_IRQHandler) refers to os_core.o(i.OSIntExit) for OSIntExit
    wdma.o(i.DMA1_Stream7_IRQHandler) refers to wdma.o(.bss) for Int_hdma1
    wdma.o(i.DMA2_Stream0_IRQHandler) refers to os_core.o(i.OSIntEnter) for OSIntEnter
    wdma.o(i.DMA2_Stream0_IRQHandler) refers to stm32f4xx_hal_dma.o(i.HAL_DMA_IRQHandler) for HAL_DMA_IRQHandler
    wdma.o(i.DMA2_Stream0_IRQHandler) refers to stm32f4xx_hal_cortex.o(i.HAL_NVIC_ClearPendingIRQ) for HAL_NVIC_ClearPendingIRQ
    wdma.o(i.DMA2_Stream0_IRQHandler) refers to os_core.o(i.OSIntExit) for OSIntExit
    wdma.o(i.DMA2_Stream0_IRQHandler) refers to wdma.o(.bss) for Int_hdma2
    wdma.o(i.DMA2_Stream1_IRQHandler) refers to os_core.o(i.OSIntEnter) for OSIntEnter
    wdma.o(i.DMA2_Stream1_IRQHandler) refers to stm32f4xx_hal_dma.o(i.HAL_DMA_IRQHandler) for HAL_DMA_IRQHandler
    wdma.o(i.DMA2_Stream1_IRQHandler) refers to stm32f4xx_hal_cortex.o(i.HAL_NVIC_ClearPendingIRQ) for HAL_NVIC_ClearPendingIRQ
    wdma.o(i.DMA2_Stream1_IRQHandler) refers to os_core.o(i.OSIntExit) for OSIntExit
    wdma.o(i.DMA2_Stream1_IRQHandler) refers to wdma.o(.bss) for Int_hdma2
    wdma.o(i.DMA2_Stream2_IRQHandler) refers to os_core.o(i.OSIntEnter) for OSIntEnter
    wdma.o(i.DMA2_Stream2_IRQHandler) refers to stm32f4xx_hal_dma.o(i.HAL_DMA_IRQHandler) for HAL_DMA_IRQHandler
    wdma.o(i.DMA2_Stream2_IRQHandler) refers to stm32f4xx_hal_cortex.o(i.HAL_NVIC_ClearPendingIRQ) for HAL_NVIC_ClearPendingIRQ
    wdma.o(i.DMA2_Stream2_IRQHandler) refers to os_core.o(i.OSIntExit) for OSIntExit
    wdma.o(i.DMA2_Stream2_IRQHandler) refers to wdma.o(.bss) for Int_hdma2
    wdma.o(i.DMA2_Stream3_IRQHandler) refers to os_core.o(i.OSIntEnter) for OSIntEnter
    wdma.o(i.DMA2_Stream3_IRQHandler) refers to stm32f4xx_hal_dma.o(i.HAL_DMA_IRQHandler) for HAL_DMA_IRQHandler
    wdma.o(i.DMA2_Stream3_IRQHandler) refers to stm32f4xx_hal_cortex.o(i.HAL_NVIC_ClearPendingIRQ) for HAL_NVIC_ClearPendingIRQ
    wdma.o(i.DMA2_Stream3_IRQHandler) refers to os_core.o(i.OSIntExit) for OSIntExit
    wdma.o(i.DMA2_Stream3_IRQHandler) refers to wdma.o(.bss) for Int_hdma2
    wdma.o(i.DMA2_Stream4_IRQHandler) refers to os_core.o(i.OSIntEnter) for OSIntEnter
    wdma.o(i.DMA2_Stream4_IRQHandler) refers to stm32f4xx_hal_dma.o(i.HAL_DMA_IRQHandler) for HAL_DMA_IRQHandler
    wdma.o(i.DMA2_Stream4_IRQHandler) refers to stm32f4xx_hal_cortex.o(i.HAL_NVIC_ClearPendingIRQ) for HAL_NVIC_ClearPendingIRQ
    wdma.o(i.DMA2_Stream4_IRQHandler) refers to os_core.o(i.OSIntExit) for OSIntExit
    wdma.o(i.DMA2_Stream4_IRQHandler) refers to wdma.o(.bss) for Int_hdma2
    wdma.o(i.DMA2_Stream5_IRQHandler) refers to os_core.o(i.OSIntEnter) for OSIntEnter
    wdma.o(i.DMA2_Stream5_IRQHandler) refers to stm32f4xx_hal_dma.o(i.HAL_DMA_IRQHandler) for HAL_DMA_IRQHandler
    wdma.o(i.DMA2_Stream5_IRQHandler) refers to stm32f4xx_hal_cortex.o(i.HAL_NVIC_ClearPendingIRQ) for HAL_NVIC_ClearPendingIRQ
    wdma.o(i.DMA2_Stream5_IRQHandler) refers to os_core.o(i.OSIntExit) for OSIntExit
    wdma.o(i.DMA2_Stream5_IRQHandler) refers to wdma.o(.bss) for Int_hdma2
    wdma.o(i.DMA2_Stream6_IRQHandler) refers to os_core.o(i.OSIntEnter) for OSIntEnter
    wdma.o(i.DMA2_Stream6_IRQHandler) refers to stm32f4xx_hal_dma.o(i.HAL_DMA_IRQHandler) for HAL_DMA_IRQHandler
    wdma.o(i.DMA2_Stream6_IRQHandler) refers to stm32f4xx_hal_cortex.o(i.HAL_NVIC_ClearPendingIRQ) for HAL_NVIC_ClearPendingIRQ
    wdma.o(i.DMA2_Stream6_IRQHandler) refers to os_core.o(i.OSIntExit) for OSIntExit
    wdma.o(i.DMA2_Stream6_IRQHandler) refers to wdma.o(.bss) for Int_hdma2
    wdma.o(i.DMA2_Stream7_IRQHandler) refers to os_core.o(i.OSIntEnter) for OSIntEnter
    wdma.o(i.DMA2_Stream7_IRQHandler) refers to stm32f4xx_hal_dma.o(i.HAL_DMA_IRQHandler) for HAL_DMA_IRQHandler
    wdma.o(i.DMA2_Stream7_IRQHandler) refers to stm32f4xx_hal_cortex.o(i.HAL_NVIC_ClearPendingIRQ) for HAL_NVIC_ClearPendingIRQ
    wdma.o(i.DMA2_Stream7_IRQHandler) refers to os_core.o(i.OSIntExit) for OSIntExit
    wdma.o(i.DMA2_Stream7_IRQHandler) refers to wdma.o(.bss) for Int_hdma2
    wdma.o(i.wDma_Init) refers to stm32f4xx_hal_cortex.o(i.HAL_NVIC_SetPriority) for HAL_NVIC_SetPriority
    wdma.o(i.wDma_Init) refers to stm32f4xx_hal_cortex.o(i.HAL_NVIC_EnableIRQ) for HAL_NVIC_EnableIRQ
    wdma.o(i.wDma_Init) refers to stm32f4xx_hal_dma.o(i.HAL_DMA_Init) for HAL_DMA_Init
    wdma.o(i.wDma_Init) refers to wdma.o(.bss) for Int_hdma1
    wsprintf.o(i.cfltcvt) refers to wsprintf.o(i.ecvtbuf) for ecvtbuf
    wsprintf.o(i.cfltcvt) refers to wstr.o(i.wStr_MemCpy) for wStr_MemCpy
    wsprintf.o(i.cfltcvt) refers to deqf.o(x$fpl$deqf) for __aeabi_cdcmpeq
    wsprintf.o(i.cfltcvt) refers to wsprintf.o(i.fcvtbuf) for fcvtbuf
    wsprintf.o(i.eaddr) refers to wsprintf.o(.data) for lower_digits
    wsprintf.o(i.ecvtbuf) refers to wstr.o(i.wStr_MeSet) for wStr_MeSet
    wsprintf.o(i.ecvtbuf) refers to wsprintf.o(i.ftoaE) for ftoaE
    wsprintf.o(i.ecvtbuf) refers to wstr.o(i.wStr_nContain) for wStr_nContain
    wsprintf.o(i.ecvtbuf) refers to wstr.o(i.wStr_MemCpy) for wStr_MemCpy
    wsprintf.o(i.ecvtbuf) refers to wstr.o(i.wStr_Cmp) for wStr_Cmp
    wsprintf.o(i.ecvtbuf) refers to wstr.o(i.wStr_Atoi) for wStr_Atoi
    wsprintf.o(i.ecvtbuf) refers to wsprintf.o(i.__ecvround) for __ecvround
    wsprintf.o(i.ecvtbuf) refers to wsprintf.o(.data) for INFINITY
    wsprintf.o(i.fcvtbuf) refers to wsprintf.o(i.ftoa) for ftoa
    wsprintf.o(i.fcvtbuf) refers to wstr.o(i.wStr_Chr) for wStr_Chr
    wsprintf.o(i.fcvtbuf) refers to wstr.o(i.wStr_Len) for wStr_Len
    wsprintf.o(i.fcvtbuf) refers to wstr.o(i.wStr_nContain) for wStr_nContain
    wsprintf.o(i.fcvtbuf) refers to wstr.o(i.wStr_MemCpy) for wStr_MemCpy
    wsprintf.o(i.fcvtbuf) refers to wsprintf.o(i.ecvtbuf) for ecvtbuf
    wsprintf.o(i.fcvtbuf) refers to dleqf.o(x$fpl$dleqf) for __aeabi_cdcmple
    wsprintf.o(i.fcvtbuf) refers to drleqf.o(x$fpl$drleqf) for __aeabi_cdrcmple
    wsprintf.o(i.fcvtbuf) refers to wsprintf.o(i.__ecvround) for __ecvround
    wsprintf.o(i.fcvtbuf) refers to wsprintf.o(.data) for INFINITY
    wsprintf.o(i.flt) refers to dleqf.o(x$fpl$dleqf) for __aeabi_cdcmple
    wsprintf.o(i.flt) refers to wsprintf.o(i.cfltcvt) for cfltcvt
    wsprintf.o(i.flt) refers to wsprintf.o(i.forcdecpt) for forcdecpt
    wsprintf.o(i.flt) refers to wsprintf.o(i.cropzeros) for cropzeros
    wsprintf.o(i.flt) refers to wstr.o(i.wStr_Len) for wStr_Len
    wsprintf.o(i.forcdecpt) refers to wstr.o(i.wStr_Len) for wStr_Len
    wsprintf.o(i.ftoa) refers to dleqf.o(x$fpl$dleqf) for __aeabi_cdcmple
    wsprintf.o(i.ftoa) refers to drleqf.o(x$fpl$drleqf) for __aeabi_cdrcmple
    wsprintf.o(i.ftoa) refers to dfix.o(x$fpl$dfix) for __aeabi_d2iz
    wsprintf.o(i.ftoa) refers to wstr.o(i.wStr_Itoa) for wStr_Itoa
    wsprintf.o(i.ftoa) refers to wstr.o(i.wStr_Len) for wStr_Len
    wsprintf.o(i.ftoa) refers to dflt_clz.o(x$fpl$dflt) for __aeabi_i2d
    wsprintf.o(i.ftoa) refers to daddsub_clz.o(x$fpl$drsb) for __aeabi_drsub
    wsprintf.o(i.ftoa) refers to dmul.o(x$fpl$dmul) for __aeabi_dmul
    wsprintf.o(i.ftoa) refers to daddsub_clz.o(x$fpl$dadd) for __aeabi_dadd
    wsprintf.o(i.ftoaE) refers to dleqf.o(x$fpl$dleqf) for __aeabi_cdcmple
    wsprintf.o(i.ftoaE) refers to drleqf.o(x$fpl$drleqf) for __aeabi_cdrcmple
    wsprintf.o(i.ftoaE) refers to dmul.o(x$fpl$dmul) for __aeabi_dmul
    wsprintf.o(i.ftoaE) refers to daddsub_clz.o(x$fpl$dadd) for __aeabi_dadd
    wsprintf.o(i.ftoaE) refers to dfix.o(x$fpl$dfix) for __aeabi_d2iz
    wsprintf.o(i.ftoaE) refers to dflt_clz.o(x$fpl$dflt) for __aeabi_i2d
    wsprintf.o(i.ftoaE) refers to daddsub_clz.o(x$fpl$drsb) for __aeabi_drsub
    wsprintf.o(i.ftoaE) refers to wstr.o(i.wStr_Itoa) for wStr_Itoa
    wsprintf.o(i.iaddr) refers to wsprintf.o(.data) for lower_digits
    wsprintf.o(i.number) refers to wsprintf.o(.data) for upper_digits
    wsprintf.o(i.wsprintf) refers to wsprintf.o(i.wvsprintf) for wvsprintf
    wsprintf.o(i.wvsprintf) refers to wsprintf.o(i.skip_atoi) for skip_atoi
    wsprintf.o(i.wvsprintf) refers to wstr.o(i.wStr_nLen) for wStr_nLen
    wsprintf.o(i.wvsprintf) refers to wsprintf.o(i.number) for number
    wsprintf.o(i.wvsprintf) refers to wsprintf.o(i.eaddr) for eaddr
    wsprintf.o(i.wvsprintf) refers to wsprintf.o(i.iaddr) for iaddr
    wsprintf.o(i.wvsprintf) refers to wsprintf.o(i.flt) for flt
    wsprintf.o(.data) refers to wsprintf.o(.conststring) for .conststring
    wstr.o(i.wStr_Atof) refers to dflt_clz.o(x$fpl$dflt) for __aeabi_i2d
    wstr.o(i.wStr_Atof) refers to dmul.o(x$fpl$dmul) for __aeabi_dmul
    wstr.o(i.wStr_Atof) refers to daddsub_clz.o(x$fpl$dadd) for __aeabi_dadd
    wstr.o(i.wStr_Atof) refers to ddiv.o(x$fpl$ddiv) for __aeabi_ddiv
    os_bsp.o(i.CPU_TS32_to_uSec) refers to wsys.o(i.wSys_GetClkFreq) for wSys_GetClkFreq
    os_bsp.o(i.CPU_TS32_to_uSec) refers to lludivv7m.o(.text) for __aeabi_uldivmod
    os_bsp.o(i.CPU_TS_TmrInit) refers to wsys.o(i.wSys_GetClkFreq) for wSys_GetClkFreq
    os_bsp.o(i.CPU_TS_TmrInit) refers to cpu_core.o(i.CPU_TS_TmrFreqSet) for CPU_TS_TmrFreqSet
    cpu_core.o(i.CPU_CntLeadZeros08) refers to cpu_a.o(.text) for CPU_CntLeadZeros
    cpu_core.o(i.CPU_CntLeadZeros16) refers to cpu_a.o(.text) for CPU_CntLeadZeros
    cpu_core.o(i.CPU_CntLeadZeros32) refers to cpu_a.o(.text) for CPU_CntLeadZeros
    cpu_core.o(i.CPU_CntLeadZeros64) refers to cpu_core.o(.constdata) for CPU_CntLeadZerosTbl
    cpu_core.o(i.CPU_CntTrailZeros08) refers to cpu_a.o(.text) for CPU_CntTrailZeros
    cpu_core.o(i.CPU_CntTrailZeros16) refers to cpu_a.o(.text) for CPU_CntTrailZeros
    cpu_core.o(i.CPU_CntTrailZeros32) refers to cpu_a.o(.text) for CPU_CntTrailZeros
    cpu_core.o(i.CPU_CntTrailZeros64) refers to cpu_core.o(i.CPU_CntLeadZeros64) for CPU_CntLeadZeros64
    cpu_core.o(i.CPU_Init) refers to cpu_core.o(i.CPU_TS_Init) for CPU_TS_Init
    cpu_core.o(i.CPU_TS_Get32) refers to os_bsp.o(i.CPU_TS_TmrRd) for CPU_TS_TmrRd
    cpu_core.o(i.CPU_TS_Init) refers to os_bsp.o(i.CPU_TS_TmrInit) for CPU_TS_TmrInit
    cpu_core.o(i.CPU_TS_Init) refers to cpu_core.o(.data) for CPU_TS_TmrFreq_Hz
    cpu_core.o(i.CPU_TS_TmrFreqGet) refers to cpu_core.o(i.CPU_SW_Exception) for CPU_SW_Exception
    cpu_core.o(i.CPU_TS_TmrFreqGet) refers to cpu_core.o(.data) for CPU_TS_TmrFreq_Hz
    cpu_core.o(i.CPU_TS_TmrFreqSet) refers to cpu_core.o(.data) for CPU_TS_TmrFreq_Hz
    cpu_c.o(i.CPU_IntSrcDis) refers to cpu_a.o(.text) for CPU_SR_Save
    cpu_c.o(i.CPU_IntSrcEn) refers to cpu_a.o(.text) for CPU_SR_Save
    cpu_c.o(i.CPU_IntSrcPendClr) refers to cpu_a.o(.text) for CPU_SR_Save
    cpu_c.o(i.CPU_IntSrcPrioGet) refers to cpu_a.o(.text) for CPU_SR_Save
    cpu_c.o(i.CPU_IntSrcPrioSet) refers to cpu_a.o(.text) for CPU_SR_Save
    cpu_c.o(i.CPU_IntSrcPrioSet) refers to cpu_core.o(i.CPU_SW_Exception) for CPU_SW_Exception
    os_cfg_app.o(.constdata) refers to os_cfg_app.o(.bss) for OSCfg_IdleTaskStk
    os_core.o(i.OSInit) refers to os_cpu_c.o(i.OSInitHook) for OSInitHook
    os_core.o(i.OSInit) refers to os_prio.o(i.OS_PrioInit) for OS_PrioInit
    os_core.o(i.OSInit) refers to os_core.o(i.OS_RdyListInit) for OS_RdyListInit
    os_core.o(i.OSInit) refers to os_mem.o(i.OS_MemInit) for OS_MemInit
    os_core.o(i.OSInit) refers to os_msg.o(i.OS_MsgPoolInit) for OS_MsgPoolInit
    os_core.o(i.OSInit) refers to os_task.o(i.OS_TaskInit) for OS_TaskInit
    os_core.o(i.OSInit) refers to os_core.o(i.OS_IdleTaskInit) for OS_IdleTaskInit
    os_core.o(i.OSInit) refers to os_tick.o(i.OS_TickInit) for OS_TickInit
    os_core.o(i.OSInit) refers to os_stat.o(i.OS_StatTaskInit) for OS_StatTaskInit
    os_core.o(i.OSInit) refers to os_tmr.o(i.OS_TmrInit) for OS_TmrInit
    os_core.o(i.OSInit) refers to os_dbg.o(i.OS_Dbg_Init) for OS_Dbg_Init
    os_core.o(i.OSInit) refers to os_cfg_app.o(i.OSCfg_Init) for OSCfg_Init
    os_core.o(i.OSInit) refers to os_var.o(.data) for OSIntNestingCtr
    os_core.o(i.OSInit) refers to os_cfg_app.o(.constdata) for OSCfg_ISRStkBasePtr
    os_core.o(i.OSIntEnter) refers to os_var.o(.data) for OSRunning
    os_core.o(i.OSIntExit) refers to cpu_a.o(.text) for CPU_SR_Save
    os_core.o(i.OSIntExit) refers to os_prio.o(i.OS_PrioGetHighest) for OS_PrioGetHighest
    os_core.o(i.OSIntExit) refers to os_cpu_a.o(CODE) for OSIntCtxSw
    os_core.o(i.OSIntExit) refers to os_var.o(.data) for OSRunning
    os_core.o(i.OSIntExit) refers to os_var.o(.bss) for OSRdyList
    os_core.o(i.OSSched) refers to cpu_a.o(.text) for CPU_SR_Save
    os_core.o(i.OSSched) refers to os_prio.o(i.OS_PrioGetHighest) for OS_PrioGetHighest
    os_core.o(i.OSSched) refers to os_cpu_a.o(CODE) for OSCtxSw
    os_core.o(i.OSSched) refers to os_var.o(.data) for OSIntNestingCtr
    os_core.o(i.OSSched) refers to os_var.o(.bss) for OSRdyList
    os_core.o(i.OSSchedLock) refers to cpu_a.o(.text) for CPU_SR_Save
    os_core.o(i.OSSchedLock) refers to os_var.o(.data) for OSRunning
    os_core.o(i.OSSchedUnlock) refers to cpu_a.o(.text) for CPU_SR_Save
    os_core.o(i.OSSchedUnlock) refers to os_core.o(i.OSSched) for OSSched
    os_core.o(i.OSSchedUnlock) refers to os_var.o(.data) for OSRunning
    os_core.o(i.OSStart) refers to os_prio.o(i.OS_PrioGetHighest) for OS_PrioGetHighest
    os_core.o(i.OSStart) refers to os_cpu_a.o(CODE) for OSStartHighRdy
    os_core.o(i.OSStart) refers to os_var.o(.data) for OSInitialized
    os_core.o(i.OSStart) refers to os_var.o(.bss) for OSRdyList
    os_core.o(i.OS_IdleTask) refers to cpu_a.o(.text) for CPU_SR_Save
    os_core.o(i.OS_IdleTask) refers to os_var.o(.data) for OSIdleTaskCtr
    os_core.o(i.OS_IdleTaskInit) refers to os_task.o(i.OSTaskCreate) for OSTaskCreate
    os_core.o(i.OS_IdleTaskInit) refers to os_var.o(.data) for OSIdleTaskCtr
    os_core.o(i.OS_IdleTaskInit) refers to os_cfg_app.o(.constdata) for OSCfg_IdleTaskStkSize
    os_core.o(i.OS_IdleTaskInit) refers to os_core.o(i.OS_IdleTask) for OS_IdleTask
    os_core.o(i.OS_IdleTaskInit) refers to os_var.o(.bss) for OSIdleTaskTCB
    os_core.o(i.OS_Pend) refers to os_core.o(i.OS_TaskBlock) for OS_TaskBlock
    os_core.o(i.OS_Pend) refers to os_core.o(i.OS_PendListInsertPrio) for OS_PendListInsertPrio
    os_core.o(i.OS_Pend) refers to os_core.o(i.OS_PendDbgNameAdd) for OS_PendDbgNameAdd
    os_core.o(i.OS_PendAbort) refers to os_core.o(i.OS_PendListRemove) for OS_PendListRemove
    os_core.o(i.OS_PendAbort) refers to os_tick.o(i.OS_TickListRemove) for OS_TickListRemove
    os_core.o(i.OS_PendAbort) refers to os_core.o(i.OS_RdyListInsert) for OS_RdyListInsert
    os_core.o(i.OS_PendListChangePrio) refers to os_core.o(i.OS_PendListRemove) for OS_PendListRemove
    os_core.o(i.OS_PendListChangePrio) refers to os_core.o(i.OS_PendListInsertPrio) for OS_PendListInsertPrio
    os_core.o(i.OS_Post) refers to os_core.o(i.OS_PendListRemove) for OS_PendListRemove
    os_core.o(i.OS_Post) refers to os_core.o(i.OS_PendDbgNameRemove) for OS_PendDbgNameRemove
    os_core.o(i.OS_Post) refers to os_tick.o(i.OS_TickListRemove) for OS_TickListRemove
    os_core.o(i.OS_Post) refers to os_core.o(i.OS_RdyListInsert) for OS_RdyListInsert
    os_core.o(i.OS_RdyListInit) refers to os_var.o(.bss) for OSRdyList
    os_core.o(i.OS_RdyListInsert) refers to os_prio.o(i.OS_PrioInsert) for OS_PrioInsert
    os_core.o(i.OS_RdyListInsert) refers to os_core.o(i.OS_RdyListInsertTail) for OS_RdyListInsertTail
    os_core.o(i.OS_RdyListInsert) refers to os_core.o(i.OS_RdyListInsertHead) for OS_RdyListInsertHead
    os_core.o(i.OS_RdyListInsert) refers to os_var.o(.data) for OSPrioCur
    os_core.o(i.OS_RdyListInsertHead) refers to os_var.o(.bss) for OSRdyList
    os_core.o(i.OS_RdyListInsertTail) refers to os_var.o(.bss) for OSRdyList
    os_core.o(i.OS_RdyListRemove) refers to os_prio.o(i.OS_PrioRemove) for OS_PrioRemove
    os_core.o(i.OS_RdyListRemove) refers to os_var.o(.bss) for OSRdyList
    os_core.o(i.OS_TaskBlock) refers to os_tick.o(i.OS_TickListInsert) for OS_TickListInsert
    os_core.o(i.OS_TaskBlock) refers to os_core.o(i.OS_RdyListRemove) for OS_RdyListRemove
    os_core.o(i.OS_TaskBlock) refers to os_var.o(.data) for OSTickCtr
    os_dbg.o(i.OS_Dbg_Init) refers to os_dbg.o(.constdata) for OSDbg_DbgEn
    os_flag.o(i.OSFlagCreate) refers to cpu_a.o(.text) for CPU_SR_Save
    os_flag.o(i.OSFlagCreate) refers to os_core.o(i.OS_PendListInit) for OS_PendListInit
    os_flag.o(i.OSFlagCreate) refers to os_flag.o(i.OS_FlagDbgListAdd) for OS_FlagDbgListAdd
    os_flag.o(i.OSFlagCreate) refers to os_var.o(.data) for OSFlagQty
    os_flag.o(i.OSFlagDel) refers to cpu_a.o(.text) for CPU_SR_Save
    os_flag.o(i.OSFlagDel) refers to os_flag.o(i.OS_FlagDbgListRemove) for OS_FlagDbgListRemove
    os_flag.o(i.OSFlagDel) refers to os_flag.o(i.OS_FlagClr) for OS_FlagClr
    os_flag.o(i.OSFlagDel) refers to os_bsp.o(i.CPU_TS_TmrRd) for CPU_TS_TmrRd
    os_flag.o(i.OSFlagDel) refers to os_core.o(i.OS_PendAbort) for OS_PendAbort
    os_flag.o(i.OSFlagDel) refers to os_core.o(i.OSSched) for OSSched
    os_flag.o(i.OSFlagDel) refers to os_var.o(.data) for OSFlagQty
    os_flag.o(i.OSFlagPend) refers to cpu_a.o(.text) for CPU_SR_Save
    os_flag.o(i.OSFlagPend) refers to os_flag.o(i.OS_FlagBlock) for OS_FlagBlock
    os_flag.o(i.OSFlagPend) refers to os_core.o(i.OSSched) for OSSched
    os_flag.o(i.OSFlagPend) refers to os_var.o(.data) for OSTCBCurPtr
    os_flag.o(i.OSFlagPendGetFlagsRdy) refers to cpu_a.o(.text) for CPU_SR_Save
    os_flag.o(i.OSFlagPendGetFlagsRdy) refers to os_var.o(.data) for OSTCBCurPtr
    os_flag.o(i.OSFlagPost) refers to os_bsp.o(i.CPU_TS_TmrRd) for CPU_TS_TmrRd
    os_flag.o(i.OSFlagPost) refers to cpu_a.o(.text) for CPU_SR_Save
    os_flag.o(i.OSFlagPost) refers to os_flag.o(i.OS_FlagTaskRdy) for OS_FlagTaskRdy
    os_flag.o(i.OSFlagPost) refers to os_core.o(i.OSSched) for OSSched
    os_flag.o(i.OS_FlagBlock) refers to os_core.o(i.OS_Pend) for OS_Pend
    os_flag.o(i.OS_FlagBlock) refers to os_var.o(.data) for OSTCBCurPtr
    os_flag.o(i.OS_FlagClr) refers to os_core.o(i.OS_PendListInit) for OS_PendListInit
    os_flag.o(i.OS_FlagDbgListAdd) refers to os_var.o(.data) for OSFlagDbgListPtr
    os_flag.o(i.OS_FlagDbgListRemove) refers to os_var.o(.data) for OSFlagDbgListPtr
    os_flag.o(i.OS_FlagTaskRdy) refers to os_tick.o(i.OS_TickListRemove) for OS_TickListRemove
    os_flag.o(i.OS_FlagTaskRdy) refers to os_core.o(i.OS_RdyListInsert) for OS_RdyListInsert
    os_flag.o(i.OS_FlagTaskRdy) refers to os_core.o(i.OS_PendListRemove) for OS_PendListRemove
    os_mem.o(i.OSMemCreate) refers to cpu_a.o(.text) for CPU_SR_Save
    os_mem.o(i.OSMemCreate) refers to os_mem.o(i.OS_MemDbgListAdd) for OS_MemDbgListAdd
    os_mem.o(i.OSMemCreate) refers to os_var.o(.data) for OSMemQty
    os_mem.o(i.OSMemGet) refers to cpu_a.o(.text) for CPU_SR_Save
    os_mem.o(i.OSMemPut) refers to cpu_a.o(.text) for CPU_SR_Save
    os_mem.o(i.OS_MemDbgListAdd) refers to os_var.o(.data) for OSMemDbgListPtr
    os_mem.o(i.OS_MemInit) refers to os_var.o(.data) for OSMemDbgListPtr
    os_msg.o(i.OS_MsgPoolInit) refers to os_cfg_app.o(.constdata) for OSCfg_MsgPoolBasePtr
    os_msg.o(i.OS_MsgPoolInit) refers to os_var.o(.bss) for OSMsgPool
    os_msg.o(i.OS_MsgQFreeAll) refers to os_var.o(.bss) for OSMsgPool
    os_msg.o(i.OS_MsgQGet) refers to os_var.o(.bss) for OSMsgPool
    os_msg.o(i.OS_MsgQPut) refers to os_var.o(.bss) for OSMsgPool
    os_mutex.o(i.OSMutexCreate) refers to cpu_a.o(.text) for CPU_SR_Save
    os_mutex.o(i.OSMutexCreate) refers to os_core.o(i.OS_PendListInit) for OS_PendListInit
    os_mutex.o(i.OSMutexCreate) refers to os_mutex.o(i.OS_MutexDbgListAdd) for OS_MutexDbgListAdd
    os_mutex.o(i.OSMutexCreate) refers to os_var.o(.data) for OSMutexQty
    os_mutex.o(i.OSMutexDel) refers to cpu_a.o(.text) for CPU_SR_Save
    os_mutex.o(i.OSMutexDel) refers to os_mutex.o(i.OS_MutexDbgListRemove) for OS_MutexDbgListRemove
    os_mutex.o(i.OSMutexDel) refers to os_mutex.o(i.OS_MutexGrpRemove) for OS_MutexGrpRemove
    os_mutex.o(i.OSMutexDel) refers to os_mutex.o(i.OS_MutexClr) for OS_MutexClr
    os_mutex.o(i.OSMutexDel) refers to os_bsp.o(i.CPU_TS_TmrRd) for CPU_TS_TmrRd
    os_mutex.o(i.OSMutexDel) refers to os_core.o(i.OS_PendAbort) for OS_PendAbort
    os_mutex.o(i.OSMutexDel) refers to os_mutex.o(i.OS_MutexGrpPrioFindHighest) for OS_MutexGrpPrioFindHighest
    os_mutex.o(i.OSMutexDel) refers to os_task.o(i.OS_TaskChangePrio) for OS_TaskChangePrio
    os_mutex.o(i.OSMutexDel) refers to os_core.o(i.OSSched) for OSSched
    os_mutex.o(i.OSMutexDel) refers to os_var.o(.data) for OSMutexQty
    os_mutex.o(i.OSMutexPend) refers to cpu_a.o(.text) for CPU_SR_Save
    os_mutex.o(i.OSMutexPend) refers to os_mutex.o(i.OS_MutexGrpAdd) for OS_MutexGrpAdd
    os_mutex.o(i.OSMutexPend) refers to os_task.o(i.OS_TaskChangePrio) for OS_TaskChangePrio
    os_mutex.o(i.OSMutexPend) refers to os_core.o(i.OS_Pend) for OS_Pend
    os_mutex.o(i.OSMutexPend) refers to os_core.o(i.OSSched) for OSSched
    os_mutex.o(i.OSMutexPend) refers to os_var.o(.data) for OSTCBCurPtr
    os_mutex.o(i.OSMutexPost) refers to cpu_a.o(.text) for CPU_SR_Save
    os_mutex.o(i.OSMutexPost) refers to os_bsp.o(i.CPU_TS_TmrRd) for CPU_TS_TmrRd
    os_mutex.o(i.OSMutexPost) refers to os_mutex.o(i.OS_MutexGrpRemove) for OS_MutexGrpRemove
    os_mutex.o(i.OSMutexPost) refers to os_mutex.o(i.OS_MutexGrpPrioFindHighest) for OS_MutexGrpPrioFindHighest
    os_mutex.o(i.OSMutexPost) refers to os_core.o(i.OS_RdyListRemove) for OS_RdyListRemove
    os_mutex.o(i.OSMutexPost) refers to os_prio.o(i.OS_PrioInsert) for OS_PrioInsert
    os_mutex.o(i.OSMutexPost) refers to os_core.o(i.OS_RdyListInsertTail) for OS_RdyListInsertTail
    os_mutex.o(i.OSMutexPost) refers to os_mutex.o(i.OS_MutexGrpAdd) for OS_MutexGrpAdd
    os_mutex.o(i.OSMutexPost) refers to os_core.o(i.OS_Post) for OS_Post
    os_mutex.o(i.OSMutexPost) refers to os_core.o(i.OSSched) for OSSched
    os_mutex.o(i.OSMutexPost) refers to os_var.o(.data) for OSTCBCurPtr
    os_mutex.o(i.OS_MutexClr) refers to os_core.o(i.OS_PendListInit) for OS_PendListInit
    os_mutex.o(i.OS_MutexDbgListAdd) refers to os_var.o(.data) for OSMutexDbgListPtr
    os_mutex.o(i.OS_MutexDbgListRemove) refers to os_var.o(.data) for OSMutexDbgListPtr
    os_mutex.o(i.OS_MutexGrpPostAll) refers to os_bsp.o(i.CPU_TS_TmrRd) for CPU_TS_TmrRd
    os_mutex.o(i.OS_MutexGrpPostAll) refers to os_mutex.o(i.OS_MutexGrpRemove) for OS_MutexGrpRemove
    os_mutex.o(i.OS_MutexGrpPostAll) refers to os_mutex.o(i.OS_MutexGrpAdd) for OS_MutexGrpAdd
    os_mutex.o(i.OS_MutexGrpPostAll) refers to os_core.o(i.OS_Post) for OS_Post
    os_prio.o(i.OS_PrioGetHighest) refers to cpu_a.o(.text) for CPU_CntLeadZeros
    os_prio.o(i.OS_PrioGetHighest) refers to os_var.o(.data) for OSPrioTbl
    os_prio.o(i.OS_PrioInit) refers to os_var.o(.data) for OSPrioTbl
    os_prio.o(i.OS_PrioInsert) refers to os_var.o(.data) for OSPrioTbl
    os_prio.o(i.OS_PrioRemove) refers to os_var.o(.data) for OSPrioTbl
    os_q.o(i.OSQCreate) refers to cpu_a.o(.text) for CPU_SR_Save
    os_q.o(i.OSQCreate) refers to os_msg.o(i.OS_MsgQInit) for OS_MsgQInit
    os_q.o(i.OSQCreate) refers to os_core.o(i.OS_PendListInit) for OS_PendListInit
    os_q.o(i.OSQCreate) refers to os_q.o(i.OS_QDbgListAdd) for OS_QDbgListAdd
    os_q.o(i.OSQCreate) refers to os_var.o(.data) for OSQQty
    os_q.o(i.OSQDel) refers to cpu_a.o(.text) for CPU_SR_Save
    os_q.o(i.OSQDel) refers to os_q.o(i.OS_QDbgListRemove) for OS_QDbgListRemove
    os_q.o(i.OSQDel) refers to os_q.o(i.OS_QClr) for OS_QClr
    os_q.o(i.OSQDel) refers to os_bsp.o(i.CPU_TS_TmrRd) for CPU_TS_TmrRd
    os_q.o(i.OSQDel) refers to os_core.o(i.OS_PendAbort) for OS_PendAbort
    os_q.o(i.OSQDel) refers to os_core.o(i.OSSched) for OSSched
    os_q.o(i.OSQDel) refers to os_var.o(.data) for OSQQty
    os_q.o(i.OSQFlush) refers to cpu_a.o(.text) for CPU_SR_Save
    os_q.o(i.OSQFlush) refers to os_msg.o(i.OS_MsgQFreeAll) for OS_MsgQFreeAll
    os_q.o(i.OSQPend) refers to cpu_a.o(.text) for CPU_SR_Save
    os_q.o(i.OSQPend) refers to os_msg.o(i.OS_MsgQGet) for OS_MsgQGet
    os_q.o(i.OSQPend) refers to os_core.o(i.OS_Pend) for OS_Pend
    os_q.o(i.OSQPend) refers to os_core.o(i.OSSched) for OSSched
    os_q.o(i.OSQPend) refers to os_var.o(.data) for OSSchedLockNestingCtr
    os_q.o(i.OSQPost) refers to os_bsp.o(i.CPU_TS_TmrRd) for CPU_TS_TmrRd
    os_q.o(i.OSQPost) refers to cpu_a.o(.text) for CPU_SR_Save
    os_q.o(i.OSQPost) refers to os_msg.o(i.OS_MsgQPut) for OS_MsgQPut
    os_q.o(i.OSQPost) refers to os_core.o(i.OS_Post) for OS_Post
    os_q.o(i.OSQPost) refers to os_core.o(i.OSSched) for OSSched
    os_q.o(i.OS_QClr) refers to os_msg.o(i.OS_MsgQFreeAll) for OS_MsgQFreeAll
    os_q.o(i.OS_QClr) refers to os_msg.o(i.OS_MsgQInit) for OS_MsgQInit
    os_q.o(i.OS_QClr) refers to os_core.o(i.OS_PendListInit) for OS_PendListInit
    os_q.o(i.OS_QDbgListAdd) refers to os_var.o(.data) for OSQDbgListPtr
    os_q.o(i.OS_QDbgListRemove) refers to os_var.o(.data) for OSQDbgListPtr
    os_sem.o(i.OSSemCreate) refers to cpu_a.o(.text) for CPU_SR_Save
    os_sem.o(i.OSSemCreate) refers to os_core.o(i.OS_PendListInit) for OS_PendListInit
    os_sem.o(i.OSSemCreate) refers to os_sem.o(i.OS_SemDbgListAdd) for OS_SemDbgListAdd
    os_sem.o(i.OSSemCreate) refers to os_var.o(.data) for OSSemQty
    os_sem.o(i.OSSemDel) refers to cpu_a.o(.text) for CPU_SR_Save
    os_sem.o(i.OSSemDel) refers to os_sem.o(i.OS_SemDbgListRemove) for OS_SemDbgListRemove
    os_sem.o(i.OSSemDel) refers to os_sem.o(i.OS_SemClr) for OS_SemClr
    os_sem.o(i.OSSemDel) refers to os_bsp.o(i.CPU_TS_TmrRd) for CPU_TS_TmrRd
    os_sem.o(i.OSSemDel) refers to os_core.o(i.OS_PendAbort) for OS_PendAbort
    os_sem.o(i.OSSemDel) refers to os_core.o(i.OSSched) for OSSched
    os_sem.o(i.OSSemDel) refers to os_var.o(.data) for OSSemQty
    os_sem.o(i.OSSemPend) refers to cpu_a.o(.text) for CPU_SR_Save
    os_sem.o(i.OSSemPend) refers to os_core.o(i.OS_Pend) for OS_Pend
    os_sem.o(i.OSSemPend) refers to os_core.o(i.OSSched) for OSSched
    os_sem.o(i.OSSemPend) refers to os_var.o(.data) for OSSchedLockNestingCtr
    os_sem.o(i.OSSemPost) refers to os_bsp.o(i.CPU_TS_TmrRd) for CPU_TS_TmrRd
    os_sem.o(i.OSSemPost) refers to cpu_a.o(.text) for CPU_SR_Save
    os_sem.o(i.OSSemPost) refers to os_core.o(i.OS_Post) for OS_Post
    os_sem.o(i.OSSemPost) refers to os_core.o(i.OSSched) for OSSched
    os_sem.o(i.OSSemSet) refers to cpu_a.o(.text) for CPU_SR_Save
    os_sem.o(i.OS_SemClr) refers to os_core.o(i.OS_PendListInit) for OS_PendListInit
    os_sem.o(i.OS_SemDbgListAdd) refers to os_var.o(.data) for OSSemDbgListPtr
    os_sem.o(i.OS_SemDbgListRemove) refers to os_var.o(.data) for OSSemDbgListPtr
    os_stat.o(i.OSStatReset) refers to cpu_a.o(.text) for CPU_SR_Save
    os_stat.o(i.OSStatReset) refers to os_bsp.o(i.CPU_TS_TmrRd) for CPU_TS_TmrRd
    os_stat.o(i.OSStatReset) refers to os_var.o(.data) for OSStatTaskCPUUsageMax
    os_stat.o(i.OSStatReset) refers to os_var.o(.bss) for OSMsgPool
    os_stat.o(i.OSStatTaskCPUUsageInit) refers to os_task.o(i.OSTaskSuspend) for OSTaskSuspend
    os_stat.o(i.OSStatTaskCPUUsageInit) refers to os_time.o(i.OSTimeDly) for OSTimeDly
    os_stat.o(i.OSStatTaskCPUUsageInit) refers to cpu_a.o(.text) for CPU_SR_Save
    os_stat.o(i.OSStatTaskCPUUsageInit) refers to os_task.o(i.OSTaskResume) for OSTaskResume
    os_stat.o(i.OSStatTaskCPUUsageInit) refers to os_var.o(.bss) for OSTmrTaskTCB
    os_stat.o(i.OSStatTaskCPUUsageInit) refers to os_var.o(.data) for OSStatTaskCtr
    os_stat.o(i.OSStatTaskCPUUsageInit) refers to os_cfg_app.o(.constdata) for OSCfg_TickRate_Hz
    os_stat.o(i.OS_StatTask) refers to os_time.o(i.OSTimeDly) for OSTimeDly
    os_stat.o(i.OS_StatTask) refers to os_stat.o(i.OSStatReset) for OSStatReset
    os_stat.o(i.OS_StatTask) refers to os_bsp.o(i.CPU_TS_TmrRd) for CPU_TS_TmrRd
    os_stat.o(i.OS_StatTask) refers to cpu_a.o(.text) for CPU_SR_Save
    os_stat.o(i.OS_StatTask) refers to os_cpu_c.o(i.OSStatTaskHook) for OSStatTaskHook
    os_stat.o(i.OS_StatTask) refers to os_task.o(i.OSTaskStkChk) for OSTaskStkChk
    os_stat.o(i.OS_StatTask) refers to os_cfg_app.o(.constdata) for OSCfg_StatTaskRate_Hz
    os_stat.o(i.OS_StatTask) refers to os_var.o(.data) for OSStatTaskRdy
    os_stat.o(i.OS_StatTaskInit) refers to os_task.o(i.OSTaskCreate) for OSTaskCreate
    os_stat.o(i.OS_StatTaskInit) refers to os_var.o(.data) for OSStatTaskCtr
    os_stat.o(i.OS_StatTaskInit) refers to os_cfg_app.o(.constdata) for OSCfg_StatTaskStkBasePtr
    os_stat.o(i.OS_StatTaskInit) refers to os_stat.o(i.OS_StatTask) for OS_StatTask
    os_stat.o(i.OS_StatTaskInit) refers to os_var.o(.bss) for OSStatTaskTCB
    os_task.o(i.OSTaskChangePrio) refers to cpu_a.o(.text) for CPU_SR_Save
    os_task.o(i.OSTaskChangePrio) refers to os_mutex.o(i.OS_MutexGrpPrioFindHighest) for OS_MutexGrpPrioFindHighest
    os_task.o(i.OSTaskChangePrio) refers to os_task.o(i.OS_TaskChangePrio) for OS_TaskChangePrio
    os_task.o(i.OSTaskChangePrio) refers to os_core.o(i.OSSched) for OSSched
    os_task.o(i.OSTaskChangePrio) refers to os_var.o(.data) for OSRunning
    os_task.o(i.OSTaskCreate) refers to os_task.o(i.OS_TaskInitTCB) for OS_TaskInitTCB
    os_task.o(i.OSTaskCreate) refers to os_cpu_c.o(i.OSTaskStkInit) for OSTaskStkInit
    os_task.o(i.OSTaskCreate) refers to os_cpu_c.o(i.OSTaskCreateHook) for OSTaskCreateHook
    os_task.o(i.OSTaskCreate) refers to cpu_a.o(.text) for CPU_SR_Save
    os_task.o(i.OSTaskCreate) refers to os_prio.o(i.OS_PrioInsert) for OS_PrioInsert
    os_task.o(i.OSTaskCreate) refers to os_core.o(i.OS_RdyListInsertTail) for OS_RdyListInsertTail
    os_task.o(i.OSTaskCreate) refers to os_task.o(i.OS_TaskDbgListAdd) for OS_TaskDbgListAdd
    os_task.o(i.OSTaskCreate) refers to os_core.o(i.OSSched) for OSSched
    os_task.o(i.OSTaskCreate) refers to os_var.o(.bss) for OSIdleTaskTCB
    os_task.o(i.OSTaskCreate) refers to os_var.o(.data) for OSTaskQty
    os_task.o(i.OSTaskDel) refers to cpu_a.o(.text) for CPU_SR_Save
    os_task.o(i.OSTaskDel) refers to os_core.o(i.OS_RdyListRemove) for OS_RdyListRemove
    os_task.o(i.OSTaskDel) refers to os_tick.o(i.OS_TickListRemove) for OS_TickListRemove
    os_task.o(i.OSTaskDel) refers to os_core.o(i.OS_PendListRemove) for OS_PendListRemove
    os_task.o(i.OSTaskDel) refers to os_mutex.o(i.OS_MutexGrpPrioFindHighest) for OS_MutexGrpPrioFindHighest
    os_task.o(i.OSTaskDel) refers to os_task.o(i.OS_TaskChangePrio) for OS_TaskChangePrio
    os_task.o(i.OSTaskDel) refers to os_mutex.o(i.OS_MutexGrpPostAll) for OS_MutexGrpPostAll
    os_task.o(i.OSTaskDel) refers to os_cpu_c.o(i.OSTaskDelHook) for OSTaskDelHook
    os_task.o(i.OSTaskDel) refers to os_task.o(i.OS_TaskDbgListRemove) for OS_TaskDbgListRemove
    os_task.o(i.OSTaskDel) refers to os_task.o(i.OS_TaskInitTCB) for OS_TaskInitTCB
    os_task.o(i.OSTaskDel) refers to os_core.o(i.OSSched) for OSSched
    os_task.o(i.OSTaskDel) refers to os_var.o(.bss) for OSIdleTaskTCB
    os_task.o(i.OSTaskDel) refers to os_var.o(.data) for OSTCBCurPtr
    os_task.o(i.OSTaskRegGet) refers to cpu_a.o(.text) for CPU_SR_Save
    os_task.o(i.OSTaskRegGet) refers to os_var.o(.data) for OSTCBCurPtr
    os_task.o(i.OSTaskRegGetID) refers to cpu_a.o(.text) for CPU_SR_Save
    os_task.o(i.OSTaskRegGetID) refers to os_var.o(.data) for OSTaskRegNextAvailID
    os_task.o(i.OSTaskRegSet) refers to cpu_a.o(.text) for CPU_SR_Save
    os_task.o(i.OSTaskRegSet) refers to os_var.o(.data) for OSTCBCurPtr
    os_task.o(i.OSTaskResume) refers to cpu_a.o(.text) for CPU_SR_Save
    os_task.o(i.OSTaskResume) refers to os_core.o(i.OS_RdyListInsert) for OS_RdyListInsert
    os_task.o(i.OSTaskResume) refers to os_core.o(i.OSSched) for OSSched
    os_task.o(i.OSTaskSemPend) refers to cpu_a.o(.text) for CPU_SR_Save
    os_task.o(i.OSTaskSemPend) refers to os_bsp.o(i.CPU_TS_TmrRd) for CPU_TS_TmrRd
    os_task.o(i.OSTaskSemPend) refers to os_core.o(i.OS_Pend) for OS_Pend
    os_task.o(i.OSTaskSemPend) refers to os_core.o(i.OSSched) for OSSched
    os_task.o(i.OSTaskSemPend) refers to os_var.o(.data) for OSTCBCurPtr
    os_task.o(i.OSTaskSemPost) refers to os_bsp.o(i.CPU_TS_TmrRd) for CPU_TS_TmrRd
    os_task.o(i.OSTaskSemPost) refers to cpu_a.o(.text) for CPU_SR_Save
    os_task.o(i.OSTaskSemPost) refers to os_core.o(i.OS_Post) for OS_Post
    os_task.o(i.OSTaskSemPost) refers to os_core.o(i.OSSched) for OSSched
    os_task.o(i.OSTaskSemPost) refers to os_var.o(.data) for OSTCBCurPtr
    os_task.o(i.OSTaskSemSet) refers to cpu_a.o(.text) for CPU_SR_Save
    os_task.o(i.OSTaskSemSet) refers to os_var.o(.data) for OSTCBCurPtr
    os_task.o(i.OSTaskStkChk) refers to cpu_a.o(.text) for CPU_SR_Save
    os_task.o(i.OSTaskStkChk) refers to os_var.o(.data) for OSTCBCurPtr
    os_task.o(i.OSTaskSuspend) refers to cpu_a.o(.text) for CPU_SR_Save
    os_task.o(i.OSTaskSuspend) refers to os_core.o(i.OS_RdyListRemove) for OS_RdyListRemove
    os_task.o(i.OSTaskSuspend) refers to os_core.o(i.OSSched) for OSSched
    os_task.o(i.OSTaskSuspend) refers to os_var.o(.bss) for OSIdleTaskTCB
    os_task.o(i.OSTaskSuspend) refers to os_var.o(.data) for OSRunning
    os_task.o(i.OS_TaskChangePrio) refers to os_core.o(i.OS_RdyListRemove) for OS_RdyListRemove
    os_task.o(i.OS_TaskChangePrio) refers to os_prio.o(i.OS_PrioInsert) for OS_PrioInsert
    os_task.o(i.OS_TaskChangePrio) refers to os_core.o(i.OS_RdyListInsertHead) for OS_RdyListInsertHead
    os_task.o(i.OS_TaskChangePrio) refers to os_core.o(i.OS_RdyListInsertTail) for OS_RdyListInsertTail
    os_task.o(i.OS_TaskChangePrio) refers to os_core.o(i.OS_PendListChangePrio) for OS_PendListChangePrio
    os_task.o(i.OS_TaskChangePrio) refers to os_mutex.o(i.OS_MutexGrpPrioFindHighest) for OS_MutexGrpPrioFindHighest
    os_task.o(i.OS_TaskChangePrio) refers to os_var.o(.data) for OSTCBCurPtr
    os_task.o(i.OS_TaskDbgListAdd) refers to os_var.o(.data) for OSTaskDbgListPtr
    os_task.o(i.OS_TaskDbgListRemove) refers to os_var.o(.data) for OSTaskDbgListPtr
    os_task.o(i.OS_TaskInit) refers to os_var.o(.data) for OSTaskDbgListPtr
    os_task.o(i.OS_TaskInitTCB) refers to os_bsp.o(i.CPU_TS_TmrRd) for CPU_TS_TmrRd
    os_task.o(i.OS_TaskReturn) refers to os_cpu_c.o(i.OSTaskReturnHook) for OSTaskReturnHook
    os_task.o(i.OS_TaskReturn) refers to os_task.o(i.OSTaskDel) for OSTaskDel
    os_task.o(i.OS_TaskReturn) refers to os_var.o(.data) for OSTCBCurPtr
    os_tick.o(i.OS_TickInit) refers to os_var.o(.data) for OSTickCtr
    os_tick.o(i.OS_TickListInsert) refers to os_var.o(.data) for OSTickCtr
    os_tick.o(i.OS_TickListInsertDly) refers to os_tick.o(i.OS_TickListInsert) for OS_TickListInsert
    os_tick.o(i.OS_TickListInsertDly) refers to os_var.o(.data) for OSTickCtr
    os_tick.o(i.OS_TickListRemove) refers to os_var.o(.data) for OSTickList
    os_tick.o(i.OS_TickListUpdate) refers to os_core.o(i.OS_RdyListInsert) for OS_RdyListInsert
    os_tick.o(i.OS_TickListUpdate) refers to os_bsp.o(i.CPU_TS_TmrRd) for CPU_TS_TmrRd
    os_tick.o(i.OS_TickListUpdate) refers to os_core.o(i.OS_PendListRemove) for OS_PendListRemove
    os_tick.o(i.OS_TickListUpdate) refers to os_mutex.o(i.OS_MutexGrpPrioFindHighest) for OS_MutexGrpPrioFindHighest
    os_tick.o(i.OS_TickListUpdate) refers to os_task.o(i.OS_TaskChangePrio) for OS_TaskChangePrio
    os_tick.o(i.OS_TickListUpdate) refers to os_var.o(.data) for OSTickList
    os_tick.o(i.OS_TickUpdate) refers to cpu_a.o(.text) for CPU_SR_Save
    os_tick.o(i.OS_TickUpdate) refers to os_bsp.o(i.CPU_TS_TmrRd) for CPU_TS_TmrRd
    os_tick.o(i.OS_TickUpdate) refers to os_tick.o(i.OS_TickListUpdate) for OS_TickListUpdate
    os_tick.o(i.OS_TickUpdate) refers to os_var.o(.data) for OSTickCtr
    os_time.o(i.OSTimeDly) refers to cpu_a.o(.text) for CPU_SR_Save
    os_time.o(i.OSTimeDly) refers to os_tick.o(i.OS_TickListInsertDly) for OS_TickListInsertDly
    os_time.o(i.OSTimeDly) refers to os_core.o(i.OS_RdyListRemove) for OS_RdyListRemove
    os_time.o(i.OSTimeDly) refers to os_core.o(i.OSSched) for OSSched
    os_time.o(i.OSTimeDly) refers to os_var.o(.data) for OSSchedLockNestingCtr
    os_time.o(i.OSTimeGet) refers to cpu_a.o(.text) for CPU_SR_Save
    os_time.o(i.OSTimeGet) refers to os_var.o(.data) for OSTickCtr
    os_time.o(i.OSTimeSet) refers to cpu_a.o(.text) for CPU_SR_Save
    os_time.o(i.OSTimeSet) refers to os_var.o(.data) for OSTickCtr
    os_time.o(i.OSTimeTick) refers to os_cpu_c.o(i.OSTimeTickHook) for OSTimeTickHook
    os_time.o(i.OSTimeTick) refers to os_tick.o(i.OS_TickUpdate) for OS_TickUpdate
    os_time.o(i.OSTimeTick) refers to os_var.o(.data) for OSRunning
    os_tmr.o(i.OSTmrCreate) refers to os_tmr.o(i.OS_TmrLock) for OS_TmrLock
    os_tmr.o(i.OSTmrCreate) refers to os_tmr.o(i.OS_TmrUnlock) for OS_TmrUnlock
    os_tmr.o(i.OSTmrCreate) refers to os_tmr.o(i.OS_TmrDbgListAdd) for OS_TmrDbgListAdd
    os_tmr.o(i.OSTmrCreate) refers to os_var.o(.data) for OSRunning
    os_tmr.o(i.OSTmrRemainGet) refers to os_tmr.o(i.OS_TmrLock) for OS_TmrLock
    os_tmr.o(i.OSTmrRemainGet) refers to os_tmr.o(i.OS_TmrUnlock) for OS_TmrUnlock
    os_tmr.o(i.OSTmrRemainGet) refers to os_var.o(.data) for OSTmrListPtr
    os_tmr.o(i.OSTmrSet) refers to os_tmr.o(i.OS_TmrLock) for OS_TmrLock
    os_tmr.o(i.OSTmrSet) refers to os_tmr.o(i.OS_TmrUnlock) for OS_TmrUnlock
    os_tmr.o(i.OSTmrSet) refers to os_var.o(.data) for OSTmrToTicksMult
    os_tmr.o(i.OSTmrStart) refers to os_tmr.o(i.OS_TmrLock) for OS_TmrLock
    os_tmr.o(i.OSTmrStart) refers to cpu_a.o(.text) for CPU_SR_Save
    os_tmr.o(i.OSTmrStart) refers to os_tmr.o(i.OS_TmrUnlink) for OS_TmrUnlink
    os_tmr.o(i.OSTmrStart) refers to os_tmr.o(i.OS_TmrLink) for OS_TmrLink
    os_tmr.o(i.OSTmrStart) refers to os_tmr.o(i.OS_TmrUnlock) for OS_TmrUnlock
    os_tmr.o(i.OSTmrStart) refers to os_var.o(.data) for OSTCBCurPtr
    os_tmr.o(i.OSTmrStart) refers to os_var.o(.bss) for OSTmrTaskTCB
    os_tmr.o(i.OSTmrStateGet) refers to os_tmr.o(i.OS_TmrLock) for OS_TmrLock
    os_tmr.o(i.OSTmrStateGet) refers to os_tmr.o(i.OS_TmrUnlock) for OS_TmrUnlock
    os_tmr.o(i.OSTmrStop) refers to os_tmr.o(i.OS_TmrLock) for OS_TmrLock
    os_tmr.o(i.OSTmrStop) refers to cpu_a.o(.text) for CPU_SR_Save
    os_tmr.o(i.OSTmrStop) refers to os_tmr.o(i.OS_TmrUnlink) for OS_TmrUnlink
    os_tmr.o(i.OSTmrStop) refers to os_tmr.o(i.OS_TmrUnlock) for OS_TmrUnlock
    os_tmr.o(i.OSTmrStop) refers to os_var.o(.data) for OSTCBCurPtr
    os_tmr.o(i.OSTmrStop) refers to os_var.o(.bss) for OSTmrTaskTCB
    os_tmr.o(i.OS_TmrCondCreate) refers to cpu_a.o(.text) for CPU_SR_Save
    os_tmr.o(i.OS_TmrCondCreate) refers to os_core.o(i.OS_PendListInit) for OS_PendListInit
    os_tmr.o(i.OS_TmrCondCreate) refers to os_var.o(.bss) for OSTmrCond
    os_tmr.o(i.OS_TmrCondSignal) refers to cpu_a.o(.text) for CPU_SR_Save
    os_tmr.o(i.OS_TmrCondSignal) refers to os_bsp.o(i.CPU_TS_TmrRd) for CPU_TS_TmrRd
    os_tmr.o(i.OS_TmrCondSignal) refers to os_core.o(i.OS_Post) for OS_Post
    os_tmr.o(i.OS_TmrCondSignal) refers to os_var.o(.bss) for OSTmrMutex
    os_tmr.o(i.OS_TmrCondWait) refers to cpu_a.o(.text) for CPU_SR_Save
    os_tmr.o(i.OS_TmrCondWait) refers to os_bsp.o(i.CPU_TS_TmrRd) for CPU_TS_TmrRd
    os_tmr.o(i.OS_TmrCondWait) refers to os_mutex.o(i.OS_MutexGrpRemove) for OS_MutexGrpRemove
    os_tmr.o(i.OS_TmrCondWait) refers to os_mutex.o(i.OS_MutexGrpAdd) for OS_MutexGrpAdd
    os_tmr.o(i.OS_TmrCondWait) refers to os_core.o(i.OS_Post) for OS_Post
    os_tmr.o(i.OS_TmrCondWait) refers to os_core.o(i.OS_Pend) for OS_Pend
    os_tmr.o(i.OS_TmrCondWait) refers to os_core.o(i.OSSched) for OSSched
    os_tmr.o(i.OS_TmrCondWait) refers to os_task.o(i.OS_TaskChangePrio) for OS_TaskChangePrio
    os_tmr.o(i.OS_TmrCondWait) refers to os_var.o(.bss) for OSTmrMutex
    os_tmr.o(i.OS_TmrCondWait) refers to os_var.o(.data) for OSPrioCur
    os_tmr.o(i.OS_TmrDbgListAdd) refers to os_var.o(.data) for OSTmrDbgListPtr
    os_tmr.o(i.OS_TmrDbgListRemove) refers to os_var.o(.data) for OSTmrDbgListPtr
    os_tmr.o(i.OS_TmrInit) refers to os_mutex.o(i.OSMutexCreate) for OSMutexCreate
    os_tmr.o(i.OS_TmrInit) refers to os_tmr.o(i.OS_TmrCondCreate) for OS_TmrCondCreate
    os_tmr.o(i.OS_TmrInit) refers to os_task.o(i.OSTaskCreate) for OSTaskCreate
    os_tmr.o(i.OS_TmrInit) refers to os_var.o(.data) for OSTmrQty
    os_tmr.o(i.OS_TmrInit) refers to os_cfg_app.o(.constdata) for OSCfg_TickRate_Hz
    os_tmr.o(i.OS_TmrInit) refers to os_var.o(.bss) for OSTmrMutex
    os_tmr.o(i.OS_TmrInit) refers to os_tmr.o(i.OS_TmrTask) for OS_TmrTask
    os_tmr.o(i.OS_TmrLink) refers to os_tmr.o(i.OS_TmrCondSignal) for OS_TmrCondSignal
    os_tmr.o(i.OS_TmrLink) refers to os_var.o(.data) for OSTmrListPtr
    os_tmr.o(i.OS_TmrLock) refers to os_mutex.o(i.OSMutexPend) for OSMutexPend
    os_tmr.o(i.OS_TmrLock) refers to os_var.o(.bss) for OSTmrMutex
    os_tmr.o(i.OS_TmrTask) refers to os_tmr.o(i.OS_TmrLock) for OS_TmrLock
    os_tmr.o(i.OS_TmrTask) refers to os_tmr.o(i.OS_TmrCondWait) for OS_TmrCondWait
    os_tmr.o(i.OS_TmrTask) refers to os_bsp.o(i.CPU_TS_TmrRd) for CPU_TS_TmrRd
    os_tmr.o(i.OS_TmrTask) refers to cpu_a.o(.text) for CPU_SR_Save
    os_tmr.o(i.OS_TmrTask) refers to os_tmr.o(i.OS_TmrUnlink) for OS_TmrUnlink
    os_tmr.o(i.OS_TmrTask) refers to os_tmr.o(i.OS_TmrLink) for OS_TmrLink
    os_tmr.o(i.OS_TmrTask) refers to os_var.o(.data) for OSTmrListPtr
    os_tmr.o(i.OS_TmrUnlink) refers to os_tmr.o(i.OS_TmrCondSignal) for OS_TmrCondSignal
    os_tmr.o(i.OS_TmrUnlink) refers to os_var.o(.data) for OSTmrListPtr
    os_tmr.o(i.OS_TmrUnlock) refers to os_mutex.o(i.OSMutexPost) for OSMutexPost
    os_tmr.o(i.OS_TmrUnlock) refers to os_var.o(.bss) for OSTmrMutex
    os_cpu_c.o(i.OSInitHook) refers to os_cfg_app.o(.constdata) for OSCfg_ISRStkBasePtr
    os_cpu_c.o(i.OSInitHook) refers to os_cpu_c.o(.data) for OS_CPU_ExceptStkBase
    os_cpu_c.o(i.OSTaskStkInit) refers to os_task.o(i.OS_TaskReturn) for OS_TaskReturn
    os_cpu_c.o(i.OSTaskSwHook) refers to os_bsp.o(i.CPU_TS_TmrRd) for CPU_TS_TmrRd
    os_cpu_c.o(i.OSTaskSwHook) refers to os_var.o(.data) for OSTCBCurPtr
    os_cpu_c.o(i.OS_CPU_SysTickHandler) refers to cpu_a.o(.text) for CPU_SR_Save
    os_cpu_c.o(i.OS_CPU_SysTickHandler) refers to os_core.o(i.OSIntEnter) for OSIntEnter
    os_cpu_c.o(i.OS_CPU_SysTickHandler) refers to os_time.o(i.OSTimeTick) for OSTimeTick
    os_cpu_c.o(i.OS_CPU_SysTickHandler) refers to os_core.o(i.OSIntExit) for OSIntExit
    os_cpu_c.o(i.OS_CPU_SysTickInitFreq) refers to os_cpu_c.o(i.OS_CPU_SysTickInit) for OS_CPU_SysTickInit
    os_cpu_c.o(i.OS_CPU_SysTickInitFreq) refers to os_cfg_app.o(.constdata) for OSCfg_TickRate_Hz
    os_cpu_a.o(CODE) refers to os_cpu_c.o(.data) for OS_CPU_ExceptStkBase
    os_cpu_a.o(CODE) refers to os_var.o(.data) for OSPrioCur
    os_cpu_a.o(CODE) refers to os_cpu_c.o(i.OSTaskSwHook) for OSTaskSwHook
    system_stm32f4xx.o(i.SystemCoreClockUpdate) refers to system_stm32f4xx.o(.data) for SystemCoreClock
    system_stm32f4xx.o(i.SystemCoreClockUpdate) refers to system_stm32f4xx.o(.constdata) for AHBPrescTable
    startup_stm32f405xx.o(STACK) refers (Special) to heapauxi.o(.text) for __use_two_region_memory
    startup_stm32f405xx.o(HEAP) refers (Special) to heapauxi.o(.text) for __use_two_region_memory
    startup_stm32f405xx.o(RESET) refers (Special) to heapauxi.o(.text) for __use_two_region_memory
    startup_stm32f405xx.o(RESET) refers to startup_stm32f405xx.o(STACK) for __initial_sp
    startup_stm32f405xx.o(RESET) refers to startup_stm32f405xx.o(.text) for Reset_Handler
    startup_stm32f405xx.o(RESET) refers to wit.o(i.NMI_Handler) for NMI_Handler
    startup_stm32f405xx.o(RESET) refers to wit.o(i.HardFault_Handler) for HardFault_Handler
    startup_stm32f405xx.o(RESET) refers to wit.o(i.MemManage_Handler) for MemManage_Handler
    startup_stm32f405xx.o(RESET) refers to wit.o(i.BusFault_Handler) for BusFault_Handler
    startup_stm32f405xx.o(RESET) refers to wit.o(i.UsageFault_Handler) for UsageFault_Handler
    startup_stm32f405xx.o(RESET) refers to wit.o(i.SVC_Handler) for SVC_Handler
    startup_stm32f405xx.o(RESET) refers to wit.o(i.DebugMon_Handler) for DebugMon_Handler
    startup_stm32f405xx.o(RESET) refers to os_cpu_a.o(CODE) for PendSV_Handler
    startup_stm32f405xx.o(RESET) refers to wit.o(i.SysTick_Handler) for SysTick_Handler
    startup_stm32f405xx.o(RESET) refers to wgpio.o(i.EXTI0_IRQHandler) for EXTI0_IRQHandler
    startup_stm32f405xx.o(RESET) refers to wgpio.o(i.EXTI1_IRQHandler) for EXTI1_IRQHandler
    startup_stm32f405xx.o(RESET) refers to wgpio.o(i.EXTI2_IRQHandler) for EXTI2_IRQHandler
    startup_stm32f405xx.o(RESET) refers to wgpio.o(i.EXTI3_IRQHandler) for EXTI3_IRQHandler
    startup_stm32f405xx.o(RESET) refers to wgpio.o(i.EXTI4_IRQHandler) for EXTI4_IRQHandler
    startup_stm32f405xx.o(RESET) refers to wdma.o(i.DMA1_Stream0_IRQHandler) for DMA1_Stream0_IRQHandler
    startup_stm32f405xx.o(RESET) refers to wdma.o(i.DMA1_Stream1_IRQHandler) for DMA1_Stream1_IRQHandler
    startup_stm32f405xx.o(RESET) refers to wdma.o(i.DMA1_Stream2_IRQHandler) for DMA1_Stream2_IRQHandler
    startup_stm32f405xx.o(RESET) refers to wdma.o(i.DMA1_Stream3_IRQHandler) for DMA1_Stream3_IRQHandler
    startup_stm32f405xx.o(RESET) refers to wdma.o(i.DMA1_Stream4_IRQHandler) for DMA1_Stream4_IRQHandler
    startup_stm32f405xx.o(RESET) refers to wdma.o(i.DMA1_Stream5_IRQHandler) for DMA1_Stream5_IRQHandler
    startup_stm32f405xx.o(RESET) refers to wdma.o(i.DMA1_Stream6_IRQHandler) for DMA1_Stream6_IRQHandler
    startup_stm32f405xx.o(RESET) refers to wgpio.o(i.EXTI9_5_IRQHandler) for EXTI9_5_IRQHandler
    startup_stm32f405xx.o(RESET) refers to wuart.o(i.USART1_IRQHandler) for USART1_IRQHandler
    startup_stm32f405xx.o(RESET) refers to wuart.o(i.USART2_IRQHandler) for USART2_IRQHandler
    startup_stm32f405xx.o(RESET) refers to wuart.o(i.USART3_IRQHandler) for USART3_IRQHandler
    startup_stm32f405xx.o(RESET) refers to wgpio.o(i.EXTI15_10_IRQHandler) for EXTI15_10_IRQHandler
    startup_stm32f405xx.o(RESET) refers to wdma.o(i.DMA1_Stream7_IRQHandler) for DMA1_Stream7_IRQHandler
    startup_stm32f405xx.o(RESET) refers to wuart.o(i.UART4_IRQHandler) for UART4_IRQHandler
    startup_stm32f405xx.o(RESET) refers to wuart.o(i.UART5_IRQHandler) for UART5_IRQHandler
    startup_stm32f405xx.o(RESET) refers to wdma.o(i.DMA2_Stream0_IRQHandler) for DMA2_Stream0_IRQHandler
    startup_stm32f405xx.o(RESET) refers to wdma.o(i.DMA2_Stream1_IRQHandler) for DMA2_Stream1_IRQHandler
    startup_stm32f405xx.o(RESET) refers to wdma.o(i.DMA2_Stream2_IRQHandler) for DMA2_Stream2_IRQHandler
    startup_stm32f405xx.o(RESET) refers to wdma.o(i.DMA2_Stream3_IRQHandler) for DMA2_Stream3_IRQHandler
    startup_stm32f405xx.o(RESET) refers to wdma.o(i.DMA2_Stream4_IRQHandler) for DMA2_Stream4_IRQHandler
    startup_stm32f405xx.o(RESET) refers to wdma.o(i.DMA2_Stream5_IRQHandler) for DMA2_Stream5_IRQHandler
    startup_stm32f405xx.o(RESET) refers to wdma.o(i.DMA2_Stream6_IRQHandler) for DMA2_Stream6_IRQHandler
    startup_stm32f405xx.o(RESET) refers to wdma.o(i.DMA2_Stream7_IRQHandler) for DMA2_Stream7_IRQHandler
    startup_stm32f405xx.o(RESET) refers to wuart.o(i.USART6_IRQHandler) for USART6_IRQHandler
    startup_stm32f405xx.o(.text) refers (Special) to heapauxi.o(.text) for __use_two_region_memory
    startup_stm32f405xx.o(.text) refers to system_stm32f4xx.o(i.SystemInit) for SystemInit
    startup_stm32f405xx.o(.text) refers to __main.o(!!!main) for __main
    startup_stm32f405xx.o(.text) refers to startup_stm32f405xx.o(HEAP) for Heap_Mem
    startup_stm32f405xx.o(.text) refers to startup_stm32f405xx.o(STACK) for Stack_Mem
    stm32f4xx_hal.o(i.HAL_DeInit) refers to stm32f4xx_hal.o(i.HAL_MspDeInit) for HAL_MspDeInit
    stm32f4xx_hal.o(i.HAL_Delay) refers to stm32f4xx_hal.o(i.HAL_GetTick) for HAL_GetTick
    stm32f4xx_hal.o(i.HAL_Delay) refers to stm32f4xx_hal.o(.data) for uwTickFreq
    stm32f4xx_hal.o(i.HAL_GetTick) refers to stm32f4xx_hal.o(.data) for uwTick
    stm32f4xx_hal.o(i.HAL_GetTickFreq) refers to stm32f4xx_hal.o(.data) for uwTickFreq
    stm32f4xx_hal.o(i.HAL_GetTickPrio) refers to stm32f4xx_hal.o(.data) for uwTickPrio
    stm32f4xx_hal.o(i.HAL_IncTick) refers to stm32f4xx_hal.o(.data) for uwTick
    stm32f4xx_hal.o(i.HAL_Init) refers to stm32f4xx_hal_cortex.o(i.HAL_NVIC_SetPriorityGrouping) for HAL_NVIC_SetPriorityGrouping
    stm32f4xx_hal.o(i.HAL_Init) refers to stm32f4xx_hal.o(i.HAL_InitTick) for HAL_InitTick
    stm32f4xx_hal.o(i.HAL_Init) refers to wsys.o(i.HAL_MspInit) for HAL_MspInit
    stm32f4xx_hal.o(i.HAL_InitTick) refers to stm32f4xx_hal_cortex.o(i.HAL_SYSTICK_Config) for HAL_SYSTICK_Config
    stm32f4xx_hal.o(i.HAL_InitTick) refers to stm32f4xx_hal_cortex.o(i.HAL_NVIC_SetPriority) for HAL_NVIC_SetPriority
    stm32f4xx_hal.o(i.HAL_InitTick) refers to stm32f4xx_hal.o(.data) for uwTickFreq
    stm32f4xx_hal.o(i.HAL_InitTick) refers to system_stm32f4xx.o(.data) for SystemCoreClock
    stm32f4xx_hal.o(i.HAL_SetTickFreq) refers to stm32f4xx_hal.o(i.HAL_InitTick) for HAL_InitTick
    stm32f4xx_hal.o(i.HAL_SetTickFreq) refers to stm32f4xx_hal.o(.data) for uwTickFreq
    stm32f4xx_hal_gpio.o(i.HAL_GPIO_EXTI_IRQHandler) refers to wgpio.o(i.HAL_GPIO_EXTI_Callback) for HAL_GPIO_EXTI_Callback
    stm32f4xx_hal_pwr.o(i.HAL_PWR_PVD_IRQHandler) refers to stm32f4xx_hal_pwr.o(i.HAL_PWR_PVDCallback) for HAL_PWR_PVDCallback
    stm32f4xx_hal_rcc.o(i.HAL_RCC_ClockConfig) refers to stm32f4xx_hal.o(i.HAL_GetTick) for HAL_GetTick
    stm32f4xx_hal_rcc.o(i.HAL_RCC_ClockConfig) refers to stm32f4xx_hal_rcc.o(i.HAL_RCC_GetSysClockFreq) for HAL_RCC_GetSysClockFreq
    stm32f4xx_hal_rcc.o(i.HAL_RCC_ClockConfig) refers to stm32f4xx_hal.o(i.HAL_InitTick) for HAL_InitTick
    stm32f4xx_hal_rcc.o(i.HAL_RCC_ClockConfig) refers to system_stm32f4xx.o(.constdata) for AHBPrescTable
    stm32f4xx_hal_rcc.o(i.HAL_RCC_ClockConfig) refers to system_stm32f4xx.o(.data) for SystemCoreClock
    stm32f4xx_hal_rcc.o(i.HAL_RCC_GetHCLKFreq) refers to system_stm32f4xx.o(.data) for SystemCoreClock
    stm32f4xx_hal_rcc.o(i.HAL_RCC_GetPCLK1Freq) refers to stm32f4xx_hal_rcc.o(i.HAL_RCC_GetHCLKFreq) for HAL_RCC_GetHCLKFreq
    stm32f4xx_hal_rcc.o(i.HAL_RCC_GetPCLK1Freq) refers to system_stm32f4xx.o(.constdata) for APBPrescTable
    stm32f4xx_hal_rcc.o(i.HAL_RCC_GetPCLK2Freq) refers to stm32f4xx_hal_rcc.o(i.HAL_RCC_GetHCLKFreq) for HAL_RCC_GetHCLKFreq
    stm32f4xx_hal_rcc.o(i.HAL_RCC_GetPCLK2Freq) refers to system_stm32f4xx.o(.constdata) for APBPrescTable
    stm32f4xx_hal_rcc.o(i.HAL_RCC_GetSysClockFreq) refers to lludivv7m.o(.text) for __aeabi_uldivmod
    stm32f4xx_hal_rcc.o(i.HAL_RCC_MCOConfig) refers to stm32f4xx_hal_gpio.o(i.HAL_GPIO_Init) for HAL_GPIO_Init
    stm32f4xx_hal_rcc.o(i.HAL_RCC_NMI_IRQHandler) refers to stm32f4xx_hal_rcc.o(i.HAL_RCC_CSSCallback) for HAL_RCC_CSSCallback
    stm32f4xx_hal_rcc.o(i.HAL_RCC_OscConfig) refers to stm32f4xx_hal.o(i.HAL_GetTick) for HAL_GetTick
    stm32f4xx_hal_rcc_ex.o(i.HAL_RCCEx_DisablePLLI2S) refers to stm32f4xx_hal.o(i.HAL_GetTick) for HAL_GetTick
    stm32f4xx_hal_rcc_ex.o(i.HAL_RCCEx_EnablePLLI2S) refers to stm32f4xx_hal.o(i.HAL_GetTick) for HAL_GetTick
    stm32f4xx_hal_rcc_ex.o(i.HAL_RCCEx_PeriphCLKConfig) refers to stm32f4xx_hal.o(i.HAL_GetTick) for HAL_GetTick
    stm32f4xx_hal_rcc_ex.o(i.HAL_RCC_DeInit) refers to stm32f4xx_hal.o(i.HAL_GetTick) for HAL_GetTick
    stm32f4xx_hal_rcc_ex.o(i.HAL_RCC_DeInit) refers to stm32f4xx_hal.o(i.HAL_InitTick) for HAL_InitTick
    stm32f4xx_hal_rcc_ex.o(i.HAL_RCC_DeInit) refers to system_stm32f4xx.o(.data) for SystemCoreClock
    stm32f4xx_hal_cortex.o(i.HAL_NVIC_GetPriorityGrouping) refers to stm32f4xx_hal_cortex.o(i.__NVIC_GetPriorityGrouping) for __NVIC_GetPriorityGrouping
    stm32f4xx_hal_cortex.o(i.HAL_NVIC_SetPriority) refers to stm32f4xx_hal_cortex.o(i.__NVIC_GetPriorityGrouping) for __NVIC_GetPriorityGrouping
    stm32f4xx_hal_cortex.o(i.HAL_NVIC_SetPriority) refers to stm32f4xx_hal_cortex.o(i.__NVIC_SetPriority) for __NVIC_SetPriority
    stm32f4xx_hal_cortex.o(i.HAL_SYSTICK_Config) refers to stm32f4xx_hal_cortex.o(i.__NVIC_SetPriority) for __NVIC_SetPriority
    stm32f4xx_hal_cortex.o(i.HAL_SYSTICK_IRQHandler) refers to stm32f4xx_hal_cortex.o(i.HAL_SYSTICK_Callback) for HAL_SYSTICK_Callback
    stm32f4xx_hal_dma.o(i.DMA_CalcBaseAndBitshift) refers to stm32f4xx_hal_dma.o(.constdata) for flagBitshiftOffset
    stm32f4xx_hal_dma.o(i.HAL_DMA_Abort) refers to stm32f4xx_hal.o(i.HAL_GetTick) for HAL_GetTick
    stm32f4xx_hal_dma.o(i.HAL_DMA_DeInit) refers to stm32f4xx_hal_dma.o(i.DMA_CalcBaseAndBitshift) for DMA_CalcBaseAndBitshift
    stm32f4xx_hal_dma.o(i.HAL_DMA_IRQHandler) refers to system_stm32f4xx.o(.data) for SystemCoreClock
    stm32f4xx_hal_dma.o(i.HAL_DMA_Init) refers to stm32f4xx_hal.o(i.HAL_GetTick) for HAL_GetTick
    stm32f4xx_hal_dma.o(i.HAL_DMA_Init) refers to stm32f4xx_hal_dma.o(i.DMA_CheckFifoParam) for DMA_CheckFifoParam
    stm32f4xx_hal_dma.o(i.HAL_DMA_Init) refers to stm32f4xx_hal_dma.o(i.DMA_CalcBaseAndBitshift) for DMA_CalcBaseAndBitshift
    stm32f4xx_hal_dma.o(i.HAL_DMA_PollForTransfer) refers to stm32f4xx_hal.o(i.HAL_GetTick) for HAL_GetTick
    stm32f4xx_hal_dma.o(i.HAL_DMA_PollForTransfer) refers to stm32f4xx_hal_dma.o(i.HAL_DMA_Abort) for HAL_DMA_Abort
    stm32f4xx_hal_dma.o(i.HAL_DMA_Start) refers to stm32f4xx_hal_dma.o(i.DMA_SetConfig) for DMA_SetConfig
    stm32f4xx_hal_dma.o(i.HAL_DMA_Start_IT) refers to stm32f4xx_hal_dma.o(i.DMA_SetConfig) for DMA_SetConfig
    stm32f4xx_hal_dma_ex.o(i.HAL_DMAEx_MultiBufferStart) refers to stm32f4xx_hal_dma_ex.o(i.DMA_MultiBufferSetConfig) for DMA_MultiBufferSetConfig
    stm32f4xx_hal_dma_ex.o(i.HAL_DMAEx_MultiBufferStart_IT) refers to stm32f4xx_hal_dma_ex.o(i.DMA_MultiBufferSetConfig) for DMA_MultiBufferSetConfig
    stm32f4xx_hal_uart.o(i.HAL_HalfDuplex_Init) refers to stm32f4xx_hal_uart.o(i.HAL_UART_MspInit) for HAL_UART_MspInit
    stm32f4xx_hal_uart.o(i.HAL_HalfDuplex_Init) refers to stm32f4xx_hal_uart.o(i.UART_SetConfig) for UART_SetConfig
    stm32f4xx_hal_uart.o(i.HAL_LIN_Init) refers to stm32f4xx_hal_uart.o(i.HAL_UART_MspInit) for HAL_UART_MspInit
    stm32f4xx_hal_uart.o(i.HAL_LIN_Init) refers to stm32f4xx_hal_uart.o(i.UART_SetConfig) for UART_SetConfig
    stm32f4xx_hal_uart.o(i.HAL_MultiProcessor_Init) refers to stm32f4xx_hal_uart.o(i.HAL_UART_MspInit) for HAL_UART_MspInit
    stm32f4xx_hal_uart.o(i.HAL_MultiProcessor_Init) refers to stm32f4xx_hal_uart.o(i.UART_SetConfig) for UART_SetConfig
    stm32f4xx_hal_uart.o(i.HAL_UART_Abort) refers to stm32f4xx_hal_dma.o(i.HAL_DMA_Abort) for HAL_DMA_Abort
    stm32f4xx_hal_uart.o(i.HAL_UART_Abort) refers to stm32f4xx_hal_dma.o(i.HAL_DMA_GetError) for HAL_DMA_GetError
    stm32f4xx_hal_uart.o(i.HAL_UART_AbortReceive) refers to stm32f4xx_hal_dma.o(i.HAL_DMA_Abort) for HAL_DMA_Abort
    stm32f4xx_hal_uart.o(i.HAL_UART_AbortReceive) refers to stm32f4xx_hal_dma.o(i.HAL_DMA_GetError) for HAL_DMA_GetError
    stm32f4xx_hal_uart.o(i.HAL_UART_AbortReceive_IT) refers to stm32f4xx_hal_dma.o(i.HAL_DMA_Abort_IT) for HAL_DMA_Abort_IT
    stm32f4xx_hal_uart.o(i.HAL_UART_AbortReceive_IT) refers to stm32f4xx_hal_uart.o(i.HAL_UART_AbortReceiveCpltCallback) for HAL_UART_AbortReceiveCpltCallback
    stm32f4xx_hal_uart.o(i.HAL_UART_AbortReceive_IT) refers to stm32f4xx_hal_uart.o(i.UART_DMARxOnlyAbortCallback) for UART_DMARxOnlyAbortCallback
    stm32f4xx_hal_uart.o(i.HAL_UART_AbortTransmit) refers to stm32f4xx_hal_dma.o(i.HAL_DMA_Abort) for HAL_DMA_Abort
    stm32f4xx_hal_uart.o(i.HAL_UART_AbortTransmit) refers to stm32f4xx_hal_dma.o(i.HAL_DMA_GetError) for HAL_DMA_GetError
    stm32f4xx_hal_uart.o(i.HAL_UART_AbortTransmit_IT) refers to stm32f4xx_hal_dma.o(i.HAL_DMA_Abort_IT) for HAL_DMA_Abort_IT
    stm32f4xx_hal_uart.o(i.HAL_UART_AbortTransmit_IT) refers to stm32f4xx_hal_uart.o(i.HAL_UART_AbortTransmitCpltCallback) for HAL_UART_AbortTransmitCpltCallback
    stm32f4xx_hal_uart.o(i.HAL_UART_AbortTransmit_IT) refers to stm32f4xx_hal_uart.o(i.UART_DMATxOnlyAbortCallback) for UART_DMATxOnlyAbortCallback
    stm32f4xx_hal_uart.o(i.HAL_UART_Abort_IT) refers to stm32f4xx_hal_dma.o(i.HAL_DMA_Abort_IT) for HAL_DMA_Abort_IT
    stm32f4xx_hal_uart.o(i.HAL_UART_Abort_IT) refers to stm32f4xx_hal_uart.o(i.HAL_UART_AbortCpltCallback) for HAL_UART_AbortCpltCallback
    stm32f4xx_hal_uart.o(i.HAL_UART_Abort_IT) refers to stm32f4xx_hal_uart.o(i.UART_DMATxAbortCallback) for UART_DMATxAbortCallback
    stm32f4xx_hal_uart.o(i.HAL_UART_Abort_IT) refers to stm32f4xx_hal_uart.o(i.UART_DMARxAbortCallback) for UART_DMARxAbortCallback
    stm32f4xx_hal_uart.o(i.HAL_UART_DMAStop) refers to stm32f4xx_hal_dma.o(i.HAL_DMA_Abort) for HAL_DMA_Abort
    stm32f4xx_hal_uart.o(i.HAL_UART_DMAStop) refers to stm32f4xx_hal_uart.o(i.UART_EndTxTransfer) for UART_EndTxTransfer
    stm32f4xx_hal_uart.o(i.HAL_UART_DMAStop) refers to stm32f4xx_hal_uart.o(i.UART_EndRxTransfer) for UART_EndRxTransfer
    stm32f4xx_hal_uart.o(i.HAL_UART_DeInit) refers to wuart.o(i.HAL_UART_MspDeInit) for HAL_UART_MspDeInit
    stm32f4xx_hal_uart.o(i.HAL_UART_IRQHandler) refers to stm32f4xx_hal_uart.o(i.UART_Receive_IT) for UART_Receive_IT
    stm32f4xx_hal_uart.o(i.HAL_UART_IRQHandler) refers to stm32f4xx_hal_uart.o(i.UART_EndRxTransfer) for UART_EndRxTransfer
    stm32f4xx_hal_uart.o(i.HAL_UART_IRQHandler) refers to stm32f4xx_hal_dma.o(i.HAL_DMA_Abort_IT) for HAL_DMA_Abort_IT
    stm32f4xx_hal_uart.o(i.HAL_UART_IRQHandler) refers to stm32f4xx_hal_uart.o(i.HAL_UART_ErrorCallback) for HAL_UART_ErrorCallback
    stm32f4xx_hal_uart.o(i.HAL_UART_IRQHandler) refers to stm32f4xx_hal_uart.o(i.UART_Transmit_IT) for UART_Transmit_IT
    stm32f4xx_hal_uart.o(i.HAL_UART_IRQHandler) refers to stm32f4xx_hal_uart.o(i.UART_EndTransmit_IT) for UART_EndTransmit_IT
    stm32f4xx_hal_uart.o(i.HAL_UART_IRQHandler) refers to stm32f4xx_hal_uart.o(i.UART_DMAAbortOnError) for UART_DMAAbortOnError
    stm32f4xx_hal_uart.o(i.HAL_UART_Init) refers to stm32f4xx_hal_uart.o(i.HAL_UART_MspInit) for HAL_UART_MspInit
    stm32f4xx_hal_uart.o(i.HAL_UART_Init) refers to stm32f4xx_hal_uart.o(i.UART_SetConfig) for UART_SetConfig
    stm32f4xx_hal_uart.o(i.HAL_UART_Receive) refers to stm32f4xx_hal.o(i.HAL_GetTick) for HAL_GetTick
    stm32f4xx_hal_uart.o(i.HAL_UART_Receive) refers to stm32f4xx_hal_uart.o(i.UART_WaitOnFlagUntilTimeout) for UART_WaitOnFlagUntilTimeout
    stm32f4xx_hal_uart.o(i.HAL_UART_Receive_DMA) refers to stm32f4xx_hal_dma.o(i.HAL_DMA_Start_IT) for HAL_DMA_Start_IT
    stm32f4xx_hal_uart.o(i.HAL_UART_Receive_DMA) refers to stm32f4xx_hal_uart.o(i.UART_DMAReceiveCplt) for UART_DMAReceiveCplt
    stm32f4xx_hal_uart.o(i.HAL_UART_Receive_DMA) refers to stm32f4xx_hal_uart.o(i.UART_DMARxHalfCplt) for UART_DMARxHalfCplt
    stm32f4xx_hal_uart.o(i.HAL_UART_Receive_DMA) refers to stm32f4xx_hal_uart.o(i.UART_DMAError) for UART_DMAError
    stm32f4xx_hal_uart.o(i.HAL_UART_Transmit) refers to stm32f4xx_hal.o(i.HAL_GetTick) for HAL_GetTick
    stm32f4xx_hal_uart.o(i.HAL_UART_Transmit) refers to stm32f4xx_hal_uart.o(i.UART_WaitOnFlagUntilTimeout) for UART_WaitOnFlagUntilTimeout
    stm32f4xx_hal_uart.o(i.HAL_UART_Transmit_DMA) refers to stm32f4xx_hal_dma.o(i.HAL_DMA_Start_IT) for HAL_DMA_Start_IT
    stm32f4xx_hal_uart.o(i.HAL_UART_Transmit_DMA) refers to stm32f4xx_hal_uart.o(i.UART_DMATransmitCplt) for UART_DMATransmitCplt
    stm32f4xx_hal_uart.o(i.HAL_UART_Transmit_DMA) refers to stm32f4xx_hal_uart.o(i.UART_DMATxHalfCplt) for UART_DMATxHalfCplt
    stm32f4xx_hal_uart.o(i.HAL_UART_Transmit_DMA) refers to stm32f4xx_hal_uart.o(i.UART_DMAError) for UART_DMAError
    stm32f4xx_hal_uart.o(i.UART_DMAAbortOnError) refers to stm32f4xx_hal_uart.o(i.HAL_UART_ErrorCallback) for HAL_UART_ErrorCallback
    stm32f4xx_hal_uart.o(i.UART_DMAError) refers to stm32f4xx_hal_uart.o(i.UART_EndTxTransfer) for UART_EndTxTransfer
    stm32f4xx_hal_uart.o(i.UART_DMAError) refers to stm32f4xx_hal_uart.o(i.UART_EndRxTransfer) for UART_EndRxTransfer
    stm32f4xx_hal_uart.o(i.UART_DMAError) refers to stm32f4xx_hal_uart.o(i.HAL_UART_ErrorCallback) for HAL_UART_ErrorCallback
    stm32f4xx_hal_uart.o(i.UART_DMAReceiveCplt) refers to stm32f4xx_hal_uart.o(i.HAL_UART_RxCpltCallback) for HAL_UART_RxCpltCallback
    stm32f4xx_hal_uart.o(i.UART_DMARxAbortCallback) refers to stm32f4xx_hal_uart.o(i.HAL_UART_AbortCpltCallback) for HAL_UART_AbortCpltCallback
    stm32f4xx_hal_uart.o(i.UART_DMARxHalfCplt) refers to stm32f4xx_hal_uart.o(i.HAL_UART_RxHalfCpltCallback) for HAL_UART_RxHalfCpltCallback
    stm32f4xx_hal_uart.o(i.UART_DMARxOnlyAbortCallback) refers to stm32f4xx_hal_uart.o(i.HAL_UART_AbortReceiveCpltCallback) for HAL_UART_AbortReceiveCpltCallback
    stm32f4xx_hal_uart.o(i.UART_DMATransmitCplt) refers to wuart.o(i.HAL_UART_TxCpltCallback) for HAL_UART_TxCpltCallback
    stm32f4xx_hal_uart.o(i.UART_DMATxAbortCallback) refers to stm32f4xx_hal_uart.o(i.HAL_UART_AbortCpltCallback) for HAL_UART_AbortCpltCallback
    stm32f4xx_hal_uart.o(i.UART_DMATxHalfCplt) refers to stm32f4xx_hal_uart.o(i.HAL_UART_TxHalfCpltCallback) for HAL_UART_TxHalfCpltCallback
    stm32f4xx_hal_uart.o(i.UART_DMATxOnlyAbortCallback) refers to stm32f4xx_hal_uart.o(i.HAL_UART_AbortTransmitCpltCallback) for HAL_UART_AbortTransmitCpltCallback
    stm32f4xx_hal_uart.o(i.UART_EndTransmit_IT) refers to wuart.o(i.HAL_UART_TxCpltCallback) for HAL_UART_TxCpltCallback
    stm32f4xx_hal_uart.o(i.UART_Receive_IT) refers to stm32f4xx_hal_uart.o(i.HAL_UART_RxCpltCallback) for HAL_UART_RxCpltCallback
    stm32f4xx_hal_uart.o(i.UART_SetConfig) refers to stm32f4xx_hal_rcc.o(i.HAL_RCC_GetPCLK2Freq) for HAL_RCC_GetPCLK2Freq
    stm32f4xx_hal_uart.o(i.UART_SetConfig) refers to stm32f4xx_hal_rcc.o(i.HAL_RCC_GetPCLK1Freq) for HAL_RCC_GetPCLK1Freq
    stm32f4xx_hal_uart.o(i.UART_WaitOnFlagUntilTimeout) refers to stm32f4xx_hal.o(i.HAL_GetTick) for HAL_GetTick
    malloc.o(.text) refers (Special) to hguard.o(.text) for __heap$guard
    malloc.o(.text) refers (Special) to init_alloc.o(.text) for _init_alloc
    malloc.o(.text) refers to rt_heap_descriptor_intlibspace.o(.text) for __rt_heap_descriptor
    malloc.o(.text) refers to heapstubs.o(.text) for __Heap_Alloc
    free.o(.text) refers (Special) to hguard.o(.text) for __heap$guard
    free.o(.text) refers to rt_heap_descriptor_intlibspace.o(.text) for __rt_heap_descriptor
    free.o(.text) refers to heapstubs.o(.text) for __Heap_Free
    h1_alloc.o(.text) refers (Special) to h1_init.o(.text) for __Heap_Initialize
    h1_alloc.o(.text) refers to rt_heap_descriptor_intlibspace.o(.text) for __rt_heap_descriptor
    h1_alloc.o(.text) refers to init_alloc.o(.text) for __Heap_Full
    h1_free.o(.text) refers to rt_heap_descriptor_intlibspace.o(.text) for __rt_heap_descriptor
    h1_alloc_mt.o(.text) refers (Special) to h1_init.o(.text) for __Heap_Initialize
    h1_alloc_mt.o(.text) refers to init_alloc.o(.text) for __Heap_Full
    h1_alloc_mt.o(.text) refers to rt_heap_descriptor_intlibspace.o(.text) for __rt_heap_descriptor
    h1_free_mt.o(.text) refers to rt_heap_descriptor_intlibspace.o(.text) for __rt_heap_descriptor
    heap2.o(i._FDIterate) refers to heap2.o(.conststring) for .conststring
    heap2.o(i.___Heap_ProvideMemory$realtime) refers to fdtree.o(i._FDTree_Delete) for _FDTree_Delete
    heap2.o(i.___Heap_ProvideMemory$realtime) refers to fdtree.o(i._FDTree_Insert) for _FDTree_Insert
    heap2.o(i.___Heap_Stats$realtime) refers to heap2.o(i._Heap2_StatsIterate) for _Heap2_StatsIterate
    heap2.o(i.___Heap_Valid$realtime) refers to heap2.o(i._FDIterate) for _FDIterate
    heap2.o(i.___Heap_Valid$realtime) refers to heap2.o(.conststring) for .conststring
    heap2.o(i._free$realtime) refers to rt_heap_descriptor_intlibspace.o(.text) for __rt_heap_descriptor
    heap2.o(i._free$realtime) refers to fdtree.o(i._FDTree_Delete) for _FDTree_Delete
    heap2.o(i._free$realtime) refers to fdtree.o(i._FDTree_Insert) for _FDTree_Insert
    heap2.o(i._malloc$realtime) refers to rt_heap_descriptor_intlibspace.o(.text) for __rt_heap_descriptor
    heap2.o(i._malloc$realtime) refers to fdtree.o(i._FDTree_FindFirst) for _FDTree_FindFirst
    heap2.o(i._malloc$realtime) refers to init_alloc.o(.text) for __Heap_Full
    heap2.o(i._malloc$realtime) refers to fdtree.o(i._FDTree_RemoveNode) for _FDTree_RemoveNode
    heap2.o(i._malloc$realtime) refers to fdtree.o(i._FDTree_Insert) for _FDTree_Insert
    heap2.o(i._posix_memalign$realtime) refers to rt_heap_descriptor_intlibspace.o(.text) for __rt_heap_descriptor
    heap2.o(i._posix_memalign$realtime) refers to fdtree.o(i._FDTree_FindFirst) for _FDTree_FindFirst
    heap2.o(i._posix_memalign$realtime) refers to init_alloc.o(.text) for __Heap_Full
    heap2.o(i._posix_memalign$realtime) refers to fdtree.o(i._FDTree_RemoveNode) for _FDTree_RemoveNode
    heap2.o(i._posix_memalign$realtime) refers to fdtree.o(i._FDTree_Insert) for _FDTree_Insert
    heap2.o(i._realloc$realtime) refers to rt_heap_descriptor_intlibspace.o(.text) for __rt_heap_descriptor
    heap2.o(i._realloc$realtime) refers to fdtree.o(i._FDTree_Insert) for _FDTree_Insert
    heap2.o(i._realloc$realtime) refers to h1_free.o(.text) for free
    heap2.o(i._realloc$realtime) refers to h1_alloc.o(.text) for malloc
    heap2.o(i._realloc$realtime) refers to fdtree.o(i._FDTree_Delete) for _FDTree_Delete
    heap2.o(i._realloc$realtime) refers to rt_memcpy_w.o(.text) for __aeabi_memcpy4
    heap2mt.o(i._FDIterate) refers to heap2mt.o(.conststring) for .conststring
    heap2mt.o(i.___Heap_Initialize$realtime$concurrent) refers to mutex_dummy.o(.text) for _mutex_initialize
    heap2mt.o(i.___Heap_ProvideMemory$realtime$concurrent) refers to fdtree.o(i._FDTree_Delete) for _FDTree_Delete
    heap2mt.o(i.___Heap_ProvideMemory$realtime$concurrent) refers to fdtree.o(i._FDTree_Insert) for _FDTree_Insert
    heap2mt.o(i.___Heap_Stats$realtime$concurrent) refers to heap2mt.o(i._Heap2_StatsIterate) for _Heap2_StatsIterate
    heap2mt.o(i.___Heap_Valid$realtime$concurrent) refers to heap2mt.o(i._FDIterate) for _FDIterate
    heap2mt.o(i.___Heap_Valid$realtime$concurrent) refers to heap2mt.o(.conststring) for .conststring
    heap2mt.o(i._free$realtime$concurrent) refers to rt_heap_descriptor_intlibspace.o(.text) for __rt_heap_descriptor
    heap2mt.o(i._free$realtime$concurrent) refers to fdtree.o(i._FDTree_Delete) for _FDTree_Delete
    heap2mt.o(i._free$realtime$concurrent) refers to fdtree.o(i._FDTree_Insert) for _FDTree_Insert
    heap2mt.o(i._malloc$realtime$concurrent) refers to rt_heap_descriptor_intlibspace.o(.text) for __rt_heap_descriptor
    heap2mt.o(i._malloc$realtime$concurrent) refers to fdtree.o(i._FDTree_FindFirst) for _FDTree_FindFirst
    heap2mt.o(i._malloc$realtime$concurrent) refers to init_alloc.o(.text) for __Heap_Full
    heap2mt.o(i._malloc$realtime$concurrent) refers to fdtree.o(i._FDTree_RemoveNode) for _FDTree_RemoveNode
    heap2mt.o(i._malloc$realtime$concurrent) refers to fdtree.o(i._FDTree_Insert) for _FDTree_Insert
    heap2mt.o(i._posix_memalign$realtime$concurrent) refers to rt_heap_descriptor_intlibspace.o(.text) for __rt_heap_descriptor
    heap2mt.o(i._posix_memalign$realtime$concurrent) refers to fdtree.o(i._FDTree_FindFirst) for _FDTree_FindFirst
    heap2mt.o(i._posix_memalign$realtime$concurrent) refers to init_alloc.o(.text) for __Heap_Full
    heap2mt.o(i._posix_memalign$realtime$concurrent) refers to fdtree.o(i._FDTree_RemoveNode) for _FDTree_RemoveNode
    heap2mt.o(i._posix_memalign$realtime$concurrent) refers to fdtree.o(i._FDTree_Insert) for _FDTree_Insert
    heap2mt.o(i._realloc$realtime$concurrent) refers to rt_heap_descriptor_intlibspace.o(.text) for __rt_heap_descriptor
    heap2mt.o(i._realloc$realtime$concurrent) refers to fdtree.o(i._FDTree_Insert) for _FDTree_Insert
    heap2mt.o(i._realloc$realtime$concurrent) refers to h1_free.o(.text) for free
    heap2mt.o(i._realloc$realtime$concurrent) refers to h1_alloc.o(.text) for malloc
    heap2mt.o(i._realloc$realtime$concurrent) refers to fdtree.o(i._FDTree_Delete) for _FDTree_Delete
    heap2mt.o(i._realloc$realtime$concurrent) refers to rt_memcpy_w.o(.text) for __aeabi_memcpy4
    __main.o(!!!main) refers to __rtentry.o(.ARM.Collect$$rtentry$$00000000) for __rt_entry
    daddsub_clz.o(x$fpl$dadd) refers (Special) to usenofp.o(x$fpl$usenofp) for __I$use$fp
    daddsub_clz.o(x$fpl$dadd) refers to daddsub_clz.o(x$fpl$dsub) for _dsub1
    daddsub_clz.o(x$fpl$dadd) refers to dretinf.o(x$fpl$dretinf) for __fpl_dretinf
    daddsub_clz.o(x$fpl$dadd) refers to dnaninf.o(x$fpl$dnaninf) for __fpl_dnaninf
    daddsub_clz.o(x$fpl$drsb) refers (Special) to usenofp.o(x$fpl$usenofp) for __I$use$fp
    daddsub_clz.o(x$fpl$drsb) refers to daddsub_clz.o(x$fpl$dadd) for _dadd1
    daddsub_clz.o(x$fpl$drsb) refers to daddsub_clz.o(x$fpl$dsub) for _dsub1
    daddsub_clz.o(x$fpl$dsub) refers (Special) to usenofp.o(x$fpl$usenofp) for __I$use$fp
    daddsub_clz.o(x$fpl$dsub) refers to daddsub_clz.o(x$fpl$dadd) for _dadd1
    daddsub_clz.o(x$fpl$dsub) refers to dnaninf.o(x$fpl$dnaninf) for __fpl_dnaninf
    ddiv.o(x$fpl$drdiv) refers (Special) to usenofp.o(x$fpl$usenofp) for __I$use$fp
    ddiv.o(x$fpl$drdiv) refers to ddiv.o(x$fpl$ddiv) for ddiv_entry
    ddiv.o(x$fpl$ddiv) refers (Special) to usenofp.o(x$fpl$usenofp) for __I$use$fp
    ddiv.o(x$fpl$ddiv) refers to dretinf.o(x$fpl$dretinf) for __fpl_dretinf
    ddiv.o(x$fpl$ddiv) refers to dnaninf.o(x$fpl$dnaninf) for __fpl_dnaninf
    deqf.o(x$fpl$deqf) refers (Special) to usenofp.o(x$fpl$usenofp) for __I$use$fp
    deqf.o(x$fpl$deqf) refers to dnaninf.o(x$fpl$dnaninf) for __fpl_dnaninf
    deqf.o(x$fpl$deqf) refers to dcmpi.o(x$fpl$dcmpinf) for __fpl_dcmp_Inf
    dfix.o(x$fpl$dfix) refers (Special) to usenofp.o(x$fpl$usenofp) for __I$use$fp
    dfix.o(x$fpl$dfix) refers to dnaninf.o(x$fpl$dnaninf) for __fpl_dnaninf
    dfix.o(x$fpl$dfixr) refers (Special) to usenofp.o(x$fpl$usenofp) for __I$use$fp
    dfix.o(x$fpl$dfixr) refers to dnaninf.o(x$fpl$dnaninf) for __fpl_dnaninf
    dflt_clz.o(x$fpl$dfltu) refers (Special) to usenofp.o(x$fpl$usenofp) for __I$use$fp
    dflt_clz.o(x$fpl$dflt) refers (Special) to usenofp.o(x$fpl$usenofp) for __I$use$fp
    dflt_clz.o(x$fpl$dfltn) refers (Special) to usenofp.o(x$fpl$usenofp) for __I$use$fp
    dleqf.o(x$fpl$dleqf) refers (Special) to usenofp.o(x$fpl$usenofp) for __I$use$fp
    dleqf.o(x$fpl$dleqf) refers to dnaninf.o(x$fpl$dnaninf) for __fpl_dnaninf
    dleqf.o(x$fpl$dleqf) refers to dcmpi.o(x$fpl$dcmpinf) for __fpl_dcmp_Inf
    dmul.o(x$fpl$dmul) refers (Special) to usenofp.o(x$fpl$usenofp) for __I$use$fp
    dmul.o(x$fpl$dmul) refers to dretinf.o(x$fpl$dretinf) for __fpl_dretinf
    dmul.o(x$fpl$dmul) refers to dnaninf.o(x$fpl$dnaninf) for __fpl_dnaninf
    drleqf.o(x$fpl$drleqf) refers (Special) to usenofp.o(x$fpl$usenofp) for __I$use$fp
    drleqf.o(x$fpl$drleqf) refers to dleqf.o(x$fpl$dleqf) for __fpl_dcmple_InfNaN
    __rtentry.o(.ARM.Collect$$rtentry$$00000000) refers (Special) to __rtentry2.o(.ARM.Collect$$rtentry$$0000000A) for __rt_entry_li
    __rtentry.o(.ARM.Collect$$rtentry$$00000000) refers (Special) to __rtentry2.o(.ARM.Collect$$rtentry$$0000000D) for __rt_entry_main
    __rtentry.o(.ARM.Collect$$rtentry$$00000000) refers (Special) to __rtentry2.o(.ARM.Collect$$rtentry$$0000000C) for __rt_entry_postli_1
    __rtentry.o(.ARM.Collect$$rtentry$$00000000) refers (Special) to __rtentry2.o(.ARM.Collect$$rtentry$$00000009) for __rt_entry_postsh_1
    __rtentry.o(.ARM.Collect$$rtentry$$00000000) refers (Special) to __rtentry2.o(.ARM.Collect$$rtentry$$00000002) for __rt_entry_presh_1
    __rtentry.o(.ARM.Collect$$rtentry$$00000000) refers (Special) to __rtentry4.o(.ARM.Collect$$rtentry$$00000004) for __rt_entry_sh
    aeabi_ldiv0_sigfpe.o(.text) refers to rt_div0.o(.text) for __rt_div0
    rt_heap_descriptor.o(.text) refers to rt_heap_descriptor.o(.bss) for __rt_heap_descriptor_data
    rt_heap_descriptor_intlibspace.o(.text) refers to libspace.o(.bss) for __libspace_start
    init_alloc.o(.text) refers (Special) to hguard.o(.text) for __heap$guard
    init_alloc.o(.text) refers (Special) to libinit2.o(.ARM.Collect$$libinit$$00000005) for __rt_lib_init_heap_2
    init_alloc.o(.text) refers (Special) to maybetermalloc1.o(.emb_text) for _maybe_terminate_alloc
    init_alloc.o(.text) refers to h1_extend.o(.text) for __Heap_ProvideMemory
    init_alloc.o(.text) refers to defsig_rtmem_outer.o(.text) for __rt_SIGRTMEM
    init_alloc.o(.text) refers to rt_heap_descriptor_intlibspace.o(.text) for __rt_heap_descriptor
    init_alloc.o(.text) refers to h1_init.o(.text) for __Heap_Initialize
    h1_init_mt.o(.text) refers to mutex_dummy.o(.text) for _mutex_initialize
    _get_argv.o(.text) refers (Special) to hrguard.o(.text) for __heap_region$guard
    _get_argv.o(.text) refers to h1_alloc.o(.text) for malloc
    _get_argv.o(.text) refers to defsig_rtmem_outer.o(.text) for __rt_SIGRTMEM
    _get_argv.o(.text) refers to sys_command.o(.text) for _sys_command_string
    libinit2.o(.ARM.Collect$$libinit$$00000005) refers (Weak) to init_alloc.o(.text) for _init_alloc
    libinit2.o(.ARM.Collect$$libinit$$00000010) refers to libinit2.o(.ARM.Collect$$libinit$$0000000F) for .ARM.Collect$$libinit$$0000000F
    libinit2.o(.ARM.Collect$$libinit$$00000012) refers to libinit2.o(.ARM.Collect$$libinit$$0000000F) for .ARM.Collect$$libinit$$0000000F
    libinit2.o(.ARM.Collect$$libinit$$00000014) refers to libinit2.o(.ARM.Collect$$libinit$$0000000F) for .ARM.Collect$$libinit$$0000000F
    libinit2.o(.ARM.Collect$$libinit$$00000016) refers to libinit2.o(.ARM.Collect$$libinit$$0000000F) for .ARM.Collect$$libinit$$0000000F
    libinit2.o(.ARM.Collect$$libinit$$00000018) refers to libinit2.o(.ARM.Collect$$libinit$$0000000F) for .ARM.Collect$$libinit$$0000000F
    libinit2.o(.ARM.Collect$$libinit$$00000026) refers to argv_veneer.o(.emb_text) for __ARM_argv_veneer
    libinit2.o(.ARM.Collect$$libinit$$00000027) refers to argv_veneer.o(.emb_text) for __ARM_argv_veneer
    dcmpi.o(x$fpl$dcmpinf) refers (Special) to usenofp.o(x$fpl$usenofp) for __I$use$fp
    dnaninf.o(x$fpl$dnaninf) refers (Special) to usenofp.o(x$fpl$usenofp) for __I$use$fp
    dretinf.o(x$fpl$dretinf) refers (Special) to usenofp.o(x$fpl$usenofp) for __I$use$fp
    sys_command.o(.text) refers (Special) to use_no_semi.o(.text) for __I$use$semihosting
    sys_command.o(.text) refers (Special) to indicate_semi.o(.text) for __semihosting_library_function
    libspace.o(.text) refers to libspace.o(.bss) for __libspace_start
    __rtentry2.o(.ARM.Collect$$rtentry$$00000008) refers to boardinit2.o(.text) for _platform_post_stackheap_init
    __rtentry2.o(.ARM.Collect$$rtentry$$0000000A) refers to libinit.o(.ARM.Collect$$libinit$$00000000) for __rt_lib_init
    __rtentry2.o(.ARM.Collect$$rtentry$$0000000B) refers to boardinit3.o(.text) for _platform_post_lib_init
    __rtentry2.o(.ARM.Collect$$rtentry$$0000000D) refers to main.o(i.main) for main
    __rtentry2.o(.ARM.Collect$$rtentry$$0000000D) refers to exit.o(.text) for exit
    __rtentry2.o(.ARM.exidx) refers to __rtentry2.o(.ARM.Collect$$rtentry$$00000001) for .ARM.Collect$$rtentry$$00000001
    __rtentry2.o(.ARM.exidx) refers to __rtentry2.o(.ARM.Collect$$rtentry$$00000008) for .ARM.Collect$$rtentry$$00000008
    __rtentry2.o(.ARM.exidx) refers to __rtentry2.o(.ARM.Collect$$rtentry$$0000000A) for .ARM.Collect$$rtentry$$0000000A
    __rtentry2.o(.ARM.exidx) refers to __rtentry2.o(.ARM.Collect$$rtentry$$0000000B) for .ARM.Collect$$rtentry$$0000000B
    __rtentry2.o(.ARM.exidx) refers to __rtentry2.o(.ARM.Collect$$rtentry$$0000000D) for .ARM.Collect$$rtentry$$0000000D
    __rtentry4.o(.ARM.Collect$$rtentry$$00000004) refers to sys_stackheap_outer.o(.text) for __user_setup_stackheap
    __rtentry4.o(.ARM.exidx) refers to __rtentry4.o(.ARM.Collect$$rtentry$$00000004) for .ARM.Collect$$rtentry$$00000004
    rt_div0.o(.text) refers to defsig_fpe_outer.o(.text) for __rt_SIGFPE
    maybetermalloc2.o(.emb_text) refers (Special) to term_alloc.o(.text) for _terminate_alloc
    h1_extend.o(.text) refers to h1_free.o(.text) for free
    h1_extend_mt.o(.text) refers to h1_free_mt.o(.text) for _free_internal
    defsig_rtmem_outer.o(.text) refers to defsig_rtmem_inner.o(.text) for __rt_SIGRTMEM_inner
    defsig_rtmem_outer.o(.text) refers to defsig_exit.o(.text) for __sig_exit
    defsig_rtmem_formal.o(.text) refers to rt_raise.o(.text) for __rt_raise
    heapauxa.o(.text) refers to heapauxa.o(.data) for .data
    argv_veneer.o(.emb_text) refers to no_argv.o(.text) for __ARM_get_argv
    sys_stackheap_outer.o(.text) refers to libspace.o(.text) for __user_perproc_libspace
    sys_stackheap_outer.o(.text) refers to startup_stm32f405xx.o(.text) for __user_initial_stackheap
    rt_raise.o(.text) refers to __raise.o(.text) for __raise
    rt_raise.o(.text) refers to sys_exit.o(.text) for _sys_exit
    term_alloc.o(.text) refers (Special) to libshutdown2.o(.ARM.Collect$$libshutdown$$0000000E) for __rt_lib_shutdown_heap_2
    term_alloc.o(.text) refers to rt_heap_descriptor_intlibspace.o(.text) for __rt_heap_descriptor
    term_alloc.o(.text) refers to h1_final.o(.text) for __Heap_Finalize
    exit.o(.text) refers to rtexit.o(.ARM.Collect$$rtexit$$00000000) for __rt_exit
    defsig_exit.o(.text) refers to sys_exit.o(.text) for _sys_exit
    defsig_fpe_outer.o(.text) refers to defsig_fpe_inner.o(.text) for __rt_SIGFPE_inner
    defsig_fpe_outer.o(.text) refers to defsig_exit.o(.text) for __sig_exit
    defsig_fpe_formal.o(.text) refers to rt_raise.o(.text) for __rt_raise
    defsig_rtmem_inner.o(.text) refers to defsig_general.o(.text) for __default_signal_display
    _get_argv_nomalloc.o(.text) refers (Special) to hrguard.o(.text) for __heap_region$guard
    _get_argv_nomalloc.o(.text) refers to defsig_rtmem_outer.o(.text) for __rt_SIGRTMEM
    _get_argv_nomalloc.o(.text) refers to sys_command.o(.text) for _sys_command_string
    libinit.o(.ARM.Collect$$libinit$$00000000) refers (Special) to libinit2.o(.ARM.Collect$$libinit$$0000002E) for __rt_lib_init_alloca_1
    libinit.o(.ARM.Collect$$libinit$$00000000) refers (Special) to libinit2.o(.ARM.Collect$$libinit$$0000002C) for __rt_lib_init_argv_1
    libinit.o(.ARM.Collect$$libinit$$00000000) refers (Special) to libinit2.o(.ARM.Collect$$libinit$$0000001B) for __rt_lib_init_atexit_1
    libinit.o(.ARM.Collect$$libinit$$00000000) refers (Special) to libinit2.o(.ARM.Collect$$libinit$$00000021) for __rt_lib_init_clock_1
    libinit.o(.ARM.Collect$$libinit$$00000000) refers (Special) to libinit2.o(.ARM.Collect$$libinit$$00000032) for __rt_lib_init_cpp_1
    libinit.o(.ARM.Collect$$libinit$$00000000) refers (Special) to libinit2.o(.ARM.Collect$$libinit$$00000030) for __rt_lib_init_exceptions_1
    libinit.o(.ARM.Collect$$libinit$$00000000) refers (Special) to libinit2.o(.ARM.Collect$$libinit$$00000002) for __rt_lib_init_fp_1
    libinit.o(.ARM.Collect$$libinit$$00000000) refers (Special) to libinit2.o(.ARM.Collect$$libinit$$0000001F) for __rt_lib_init_fp_trap_1
    libinit.o(.ARM.Collect$$libinit$$00000000) refers (Special) to libinit2.o(.ARM.Collect$$libinit$$00000023) for __rt_lib_init_getenv_1
    libinit.o(.ARM.Collect$$libinit$$00000000) refers (Special) to libinit2.o(.ARM.Collect$$libinit$$0000000A) for __rt_lib_init_heap_1
    libinit.o(.ARM.Collect$$libinit$$00000000) refers (Special) to libinit2.o(.ARM.Collect$$libinit$$00000011) for __rt_lib_init_lc_collate_1
    libinit.o(.ARM.Collect$$libinit$$00000000) refers (Special) to libinit2.o(.ARM.Collect$$libinit$$00000013) for __rt_lib_init_lc_ctype_1
    libinit.o(.ARM.Collect$$libinit$$00000000) refers (Special) to libinit2.o(.ARM.Collect$$libinit$$00000015) for __rt_lib_init_lc_monetary_1
    libinit.o(.ARM.Collect$$libinit$$00000000) refers (Special) to libinit2.o(.ARM.Collect$$libinit$$00000017) for __rt_lib_init_lc_numeric_1
    libinit.o(.ARM.Collect$$libinit$$00000000) refers (Special) to libinit2.o(.ARM.Collect$$libinit$$00000019) for __rt_lib_init_lc_time_1
    libinit.o(.ARM.Collect$$libinit$$00000000) refers (Special) to libinit2.o(.ARM.Collect$$libinit$$00000004) for __rt_lib_init_preinit_1
    libinit.o(.ARM.Collect$$libinit$$00000000) refers (Special) to libinit2.o(.ARM.Collect$$libinit$$0000000E) for __rt_lib_init_rand_1
    libinit.o(.ARM.Collect$$libinit$$00000000) refers (Special) to libinit2.o(.ARM.Collect$$libinit$$00000033) for __rt_lib_init_return
    libinit.o(.ARM.Collect$$libinit$$00000000) refers (Special) to libinit2.o(.ARM.Collect$$libinit$$0000001D) for __rt_lib_init_signal_1
    libinit.o(.ARM.Collect$$libinit$$00000000) refers (Special) to libinit2.o(.ARM.Collect$$libinit$$00000025) for __rt_lib_init_stdio_1
    libinit.o(.ARM.Collect$$libinit$$00000000) refers (Special) to libinit2.o(.ARM.Collect$$libinit$$0000000C) for __rt_lib_init_user_alloc_1
    sys_exit.o(.text) refers (Special) to use_no_semi.o(.text) for __I$use$semihosting
    sys_exit.o(.text) refers (Special) to indicate_semi.o(.text) for __semihosting_library_function
    rtexit.o(.ARM.Collect$$rtexit$$00000000) refers (Special) to rtexit2.o(.ARM.Collect$$rtexit$$00000004) for __rt_exit_exit
    rtexit.o(.ARM.Collect$$rtexit$$00000000) refers (Special) to rtexit2.o(.ARM.Collect$$rtexit$$00000003) for __rt_exit_ls
    rtexit.o(.ARM.Collect$$rtexit$$00000000) refers (Special) to rtexit2.o(.ARM.Collect$$rtexit$$00000002) for __rt_exit_prels_1
    rtexit.o(.ARM.exidx) refers (Special) to rtexit2.o(.ARM.Collect$$rtexit$$00000004) for __rt_exit_exit
    rtexit.o(.ARM.exidx) refers (Special) to rtexit2.o(.ARM.Collect$$rtexit$$00000003) for __rt_exit_ls
    rtexit.o(.ARM.exidx) refers (Special) to rtexit2.o(.ARM.Collect$$rtexit$$00000002) for __rt_exit_prels_1
    rtexit.o(.ARM.exidx) refers to rtexit.o(.ARM.Collect$$rtexit$$00000000) for .ARM.Collect$$rtexit$$00000000
    __raise.o(.text) refers to defsig.o(CL$$defsig) for __default_signal_handler
    defsig_general.o(.text) refers to sys_wrch.o(.text) for _ttywrch
    defsig_fpe_inner.o(.text) refers to defsig_general.o(.text) for __default_signal_display
    libshutdown2.o(.ARM.Collect$$libshutdown$$0000000D) refers (Weak) to term_alloc.o(.text) for _terminate_alloc
    sys_wrch.o(.text) refers (Special) to use_no_semi.o(.text) for __I$use$semihosting
    sys_wrch.o(.text) refers (Special) to indicate_semi.o(.text) for __semihosting_library_function
    rtexit2.o(.ARM.Collect$$rtexit$$00000003) refers to libshutdown.o(.ARM.Collect$$libshutdown$$00000000) for __rt_lib_shutdown
    rtexit2.o(.ARM.Collect$$rtexit$$00000004) refers to sys_exit.o(.text) for _sys_exit
    rtexit2.o(.ARM.exidx) refers to rtexit2.o(.ARM.Collect$$rtexit$$00000001) for .ARM.Collect$$rtexit$$00000001
    rtexit2.o(.ARM.exidx) refers to rtexit2.o(.ARM.Collect$$rtexit$$00000003) for .ARM.Collect$$rtexit$$00000003
    rtexit2.o(.ARM.exidx) refers to rtexit2.o(.ARM.Collect$$rtexit$$00000004) for .ARM.Collect$$rtexit$$00000004
    defsig.o(CL$$defsig) refers to defsig_fpe_inner.o(.text) for __rt_SIGFPE_inner
    defsig.o(CL$$defsig) refers to defsig_rtmem_inner.o(.text) for __rt_SIGRTMEM_inner
    defsig_abrt_inner.o(.text) refers to defsig_general.o(.text) for __default_signal_display
    defsig_rtred_inner.o(.text) refers to defsig_general.o(.text) for __default_signal_display
    defsig_stak_inner.o(.text) refers to defsig_general.o(.text) for __default_signal_display
    defsig_pvfn_inner.o(.text) refers to defsig_general.o(.text) for __default_signal_display
    defsig_cppl_inner.o(.text) refers to defsig_general.o(.text) for __default_signal_display
    defsig_segv_inner.o(.text) refers to defsig_general.o(.text) for __default_signal_display
    defsig_other.o(.text) refers to defsig_general.o(.text) for __default_signal_display
    libshutdown.o(.ARM.Collect$$libshutdown$$00000000) refers (Special) to libshutdown2.o(.ARM.Collect$$libshutdown$$00000002) for __rt_lib_shutdown_cpp_1
    libshutdown.o(.ARM.Collect$$libshutdown$$00000000) refers (Special) to libshutdown2.o(.ARM.Collect$$libshutdown$$00000007) for __rt_lib_shutdown_fp_trap_1
    libshutdown.o(.ARM.Collect$$libshutdown$$00000000) refers (Special) to libshutdown2.o(.ARM.Collect$$libshutdown$$0000000F) for __rt_lib_shutdown_heap_1
    libshutdown.o(.ARM.Collect$$libshutdown$$00000000) refers (Special) to libshutdown2.o(.ARM.Collect$$libshutdown$$00000010) for __rt_lib_shutdown_return
    libshutdown.o(.ARM.Collect$$libshutdown$$00000000) refers (Special) to libshutdown2.o(.ARM.Collect$$libshutdown$$0000000A) for __rt_lib_shutdown_signal_1
    libshutdown.o(.ARM.Collect$$libshutdown$$00000000) refers (Special) to libshutdown2.o(.ARM.Collect$$libshutdown$$00000004) for __rt_lib_shutdown_stdio_1
    libshutdown.o(.ARM.Collect$$libshutdown$$00000000) refers (Special) to libshutdown2.o(.ARM.Collect$$libshutdown$$0000000C) for __rt_lib_shutdown_user_alloc_1


==============================================================================

Removing Unused input sections from the image.

    Removing main.o(.rev16_text), (4 bytes).
    Removing main.o(.revsh_text), (4 bytes).
    Removing main.o(.rrx_text), (6 bytes).
    Removing wled.o(.rev16_text), (4 bytes).
    Removing wled.o(.revsh_text), (4 bytes).
    Removing wled.o(.rrx_text), (6 bytes).
    Removing wled.o(i.wLed_Init), (160 bytes).
    Removing wled.o(i.wLed_SetStatus), (46 bytes).
    Removing wserial.o(.rev16_text), (4 bytes).
    Removing wserial.o(.revsh_text), (4 bytes).
    Removing wserial.o(.rrx_text), (6 bytes).
    Removing wserial.o(i.wSerial_CSSInit), (56 bytes).
    Removing wserial.o(i.wSerial_PrintfHex), (136 bytes).
    Removing wserial.o(i.wSerial_TransmitReceive), (184 bytes).
    Removing wgpio.o(.rev16_text), (4 bytes).
    Removing wgpio.o(.revsh_text), (4 bytes).
    Removing wgpio.o(.rrx_text), (6 bytes).
    Removing wgpio.o(i.wExti_SetCallback), (204 bytes).
    Removing wgpio.o(i.wGpio_putRead), (48 bytes).
    Removing wit.o(.rev16_text), (4 bytes).
    Removing wit.o(.revsh_text), (4 bytes).
    Removing wit.o(.rrx_text), (6 bytes).
    Removing wsys.o(.rev16_text), (4 bytes).
    Removing wsys.o(.revsh_text), (4 bytes).
    Removing wsys.o(.rrx_text), (6 bytes).
    Removing wsys.o(i.wSys_DisAll), (8 bytes).
    Removing wsys.o(i.wSys_Reset), (68 bytes).
    Removing wsys.o(i.wSys_ResetCheck), (260 bytes).
    Removing wuart.o(.rev16_text), (4 bytes).
    Removing wuart.o(.revsh_text), (4 bytes).
    Removing wuart.o(.rrx_text), (6 bytes).
    Removing wuart.o(i.HAL_UART_MspDeInit), (204 bytes).
    Removing wuart.o(i.wUart_CSSInit), (40 bytes).
    Removing wuart.o(i.wUart_DisAll), (36 bytes).
    Removing wuart.o(i.wUart_ErrFlagCheck), (70 bytes).
    Removing wdma.o(.rev16_text), (4 bytes).
    Removing wdma.o(.revsh_text), (4 bytes).
    Removing wdma.o(.rrx_text), (6 bytes).
    Removing wsprintf.o(i.wsprintf), (30 bytes).
    Removing wstr.o(.rev16_text), (4 bytes).
    Removing wstr.o(.revsh_text), (4 bytes).
    Removing wstr.o(.rrx_text), (6 bytes).
    Removing wstr.o(i.Int2Str), (88 bytes).
    Removing wstr.o(i.Str2Int), (244 bytes).
    Removing wstr.o(i.wStr_Atof), (508 bytes).
    Removing wstr.o(i.wStr_Cntrl), (34 bytes).
    Removing wstr.o(i.wStr_Copy), (40 bytes).
    Removing wstr.o(i.wStr_Htoi), (244 bytes).
    Removing wstr.o(i.wStr_Tolower), (22 bytes).
    Removing wstr.o(i.wStr_Upper), (22 bytes).
    Removing wstr.o(i.wStr_Upr), (32 bytes).
    Removing wstr.o(i.wStr_lwr), (32 bytes).
    Removing wstr.o(i.wStr_nCmp), (46 bytes).
    Removing os_app_hooks.o(i.App_OS_ClrAllHooks), (2 bytes).
    Removing os_app_hooks.o(i.App_OS_IdleTaskHook), (2 bytes).
    Removing os_app_hooks.o(i.App_OS_SetAllHooks), (2 bytes).
    Removing os_app_hooks.o(i.App_OS_StatTaskHook), (2 bytes).
    Removing os_app_hooks.o(i.App_OS_TaskCreateHook), (2 bytes).
    Removing os_app_hooks.o(i.App_OS_TaskDelHook), (2 bytes).
    Removing os_app_hooks.o(i.App_OS_TaskReturnHook), (2 bytes).
    Removing os_app_hooks.o(i.App_OS_TaskSwHook), (2 bytes).
    Removing os_app_hooks.o(i.App_OS_TimeTickHook), (2 bytes).
    Removing os_bsp.o(.rev16_text), (4 bytes).
    Removing os_bsp.o(.revsh_text), (4 bytes).
    Removing os_bsp.o(.rrx_text), (6 bytes).
    Removing os_bsp.o(i.CPU_TS32_to_uSec), (60 bytes).
    Removing cpu_core.o(i.CPU_CntLeadZeros08), (18 bytes).
    Removing cpu_core.o(i.CPU_CntLeadZeros16), (18 bytes).
    Removing cpu_core.o(i.CPU_CntLeadZeros32), (18 bytes).
    Removing cpu_core.o(i.CPU_CntLeadZeros64), (224 bytes).
    Removing cpu_core.o(i.CPU_CntTrailZeros08), (22 bytes).
    Removing cpu_core.o(i.CPU_CntTrailZeros16), (22 bytes).
    Removing cpu_core.o(i.CPU_CntTrailZeros32), (22 bytes).
    Removing cpu_core.o(i.CPU_CntTrailZeros64), (62 bytes).
    Removing cpu_core.o(i.CPU_PopCnt32), (56 bytes).
    Removing cpu_core.o(i.CPU_SW_Exception), (4 bytes).
    Removing cpu_core.o(i.CPU_StatReset), (2 bytes).
    Removing cpu_core.o(i.CPU_TS_Get32), (12 bytes).
    Removing cpu_core.o(i.CPU_TS_TmrFreqGet), (36 bytes).
    Removing cpu_core.o(i.CPU_TS_Update), (2 bytes).
    Removing cpu_core.o(.constdata), (260 bytes).
    Removing cpu_c.o(i.CPU_BitBandClr), (68 bytes).
    Removing cpu_c.o(i.CPU_BitBandSet), (68 bytes).
    Removing cpu_c.o(i.CPU_IntSrcDis), (336 bytes).
    Removing cpu_c.o(i.CPU_IntSrcEn), (336 bytes).
    Removing cpu_c.o(i.CPU_IntSrcPendClr), (166 bytes).
    Removing cpu_c.o(i.CPU_IntSrcPrioGet), (464 bytes).
    Removing cpu_c.o(i.CPU_IntSrcPrioSet), (532 bytes).
    Removing os_core.o(i.OSSchedLock), (92 bytes).
    Removing os_core.o(i.OSSchedUnlock), (124 bytes).
    Removing os_core.o(i.OSVersion), (12 bytes).
    Removing os_core.o(i.OS_PendAbort), (142 bytes).
    Removing os_core.o(i.OS_RdyListMoveHeadToTail), (62 bytes).
    Removing os_flag.o(i.OSFlagCreate), (128 bytes).
    Removing os_flag.o(i.OSFlagDel), (228 bytes).
    Removing os_flag.o(i.OSFlagPend), (668 bytes).
    Removing os_flag.o(i.OSFlagPendGetFlagsRdy), (52 bytes).
    Removing os_flag.o(i.OSFlagPost), (330 bytes).
    Removing os_flag.o(i.OS_FlagBlock), (56 bytes).
    Removing os_flag.o(i.OS_FlagClr), (40 bytes).
    Removing os_flag.o(i.OS_FlagDbgListAdd), (48 bytes).
    Removing os_flag.o(i.OS_FlagDbgListRemove), (48 bytes).
    Removing os_flag.o(i.OS_FlagTaskRdy), (100 bytes).
    Removing os_mem.o(i.OSMemCreate), (184 bytes).
    Removing os_mem.o(i.OSMemGet), (88 bytes).
    Removing os_mem.o(i.OSMemPut), (92 bytes).
    Removing os_mem.o(i.OS_MemDbgListAdd), (40 bytes).
    Removing os_msg.o(i.OS_MsgQFreeAll), (64 bytes).
    Removing os_msg.o(i.OS_MsgQGet), (104 bytes).
    Removing os_msg.o(i.OS_MsgQInit), (14 bytes).
    Removing os_msg.o(i.OS_MsgQPut), (260 bytes).
    Removing os_mutex.o(i.OSMutexDel), (308 bytes).
    Removing os_mutex.o(i.OS_MutexClr), (48 bytes).
    Removing os_mutex.o(i.OS_MutexDbgListRemove), (48 bytes).
    Removing os_q.o(i.OSQCreate), (132 bytes).
    Removing os_q.o(i.OSQDel), (228 bytes).
    Removing os_q.o(i.OSQFlush), (58 bytes).
    Removing os_q.o(i.OSQPend), (356 bytes).
    Removing os_q.o(i.OSQPost), (176 bytes).
    Removing os_q.o(i.OS_QClr), (48 bytes).
    Removing os_q.o(i.OS_QDbgListAdd), (48 bytes).
    Removing os_q.o(i.OS_QDbgListRemove), (48 bytes).
    Removing os_sem.o(i.OSSemDel), (228 bytes).
    Removing os_sem.o(i.OS_SemClr), (40 bytes).
    Removing os_sem.o(i.OS_SemDbgListRemove), (48 bytes).
    Removing os_task.o(i.OSTaskChangePrio), (160 bytes).
    Removing os_task.o(i.OSTaskRegGet), (72 bytes).
    Removing os_task.o(i.OSTaskRegGetID), (88 bytes).
    Removing os_task.o(i.OSTaskRegSet), (72 bytes).
    Removing os_task.o(i.OSTaskSemPend), (436 bytes).
    Removing os_task.o(i.OSTaskSemPost), (276 bytes).
    Removing os_task.o(i.OSTaskSemSet), (108 bytes).
    Removing os_time.o(i.OSTimeGet), (52 bytes).
    Removing os_time.o(i.OSTimeSet), (52 bytes).
    Removing os_tmr.o(i.OSTmrRemainGet), (172 bytes).
    Removing os_tmr.o(i.OSTmrStateGet), (60 bytes).
    Removing os_tmr.o(i.OSTmrStop), (276 bytes).
    Removing os_tmr.o(i.OS_TmrClr), (48 bytes).
    Removing os_tmr.o(i.OS_TmrDbgListRemove), (48 bytes).
    Removing os_cpu_c.o(i.OSIdleTaskHook), (2 bytes).
    Removing os_cpu_c.o(i.OS_CPU_SysTickInitFreq), (24 bytes).
    Removing system_stm32f4xx.o(.rev16_text), (4 bytes).
    Removing system_stm32f4xx.o(.revsh_text), (4 bytes).
    Removing system_stm32f4xx.o(.rrx_text), (6 bytes).
    Removing system_stm32f4xx.o(i.SystemCoreClockUpdate), (192 bytes).
    Removing stm32f4xx_hal.o(.rev16_text), (4 bytes).
    Removing stm32f4xx_hal.o(.revsh_text), (4 bytes).
    Removing stm32f4xx_hal.o(.rrx_text), (6 bytes).
    Removing stm32f4xx_hal.o(i.HAL_DBGMCU_DisableDBGSleepMode), (20 bytes).
    Removing stm32f4xx_hal.o(i.HAL_DBGMCU_DisableDBGStandbyMode), (20 bytes).
    Removing stm32f4xx_hal.o(i.HAL_DBGMCU_DisableDBGStopMode), (20 bytes).
    Removing stm32f4xx_hal.o(i.HAL_DBGMCU_EnableDBGSleepMode), (20 bytes).
    Removing stm32f4xx_hal.o(i.HAL_DBGMCU_EnableDBGStandbyMode), (20 bytes).
    Removing stm32f4xx_hal.o(i.HAL_DBGMCU_EnableDBGStopMode), (20 bytes).
    Removing stm32f4xx_hal.o(i.HAL_DeInit), (68 bytes).
    Removing stm32f4xx_hal.o(i.HAL_Delay), (40 bytes).
    Removing stm32f4xx_hal.o(i.HAL_DisableCompensationCell), (12 bytes).
    Removing stm32f4xx_hal.o(i.HAL_EnableCompensationCell), (12 bytes).
    Removing stm32f4xx_hal.o(i.HAL_GetDEVID), (16 bytes).
    Removing stm32f4xx_hal.o(i.HAL_GetHalVersion), (8 bytes).
    Removing stm32f4xx_hal.o(i.HAL_GetTickFreq), (12 bytes).
    Removing stm32f4xx_hal.o(i.HAL_GetTickPrio), (12 bytes).
    Removing stm32f4xx_hal.o(i.HAL_GetUIDw0), (12 bytes).
    Removing stm32f4xx_hal.o(i.HAL_GetUIDw1), (12 bytes).
    Removing stm32f4xx_hal.o(i.HAL_GetUIDw2), (12 bytes).
    Removing stm32f4xx_hal.o(i.HAL_MspDeInit), (2 bytes).
    Removing stm32f4xx_hal.o(i.HAL_MspInit), (2 bytes).
    Removing stm32f4xx_hal.o(i.HAL_ResumeTick), (18 bytes).
    Removing stm32f4xx_hal.o(i.HAL_SetTickFreq), (40 bytes).
    Removing stm32f4xx_hal.o(i.HAL_SuspendTick), (18 bytes).
    Removing stm32f4xx_hal_gpio.o(.rev16_text), (4 bytes).
    Removing stm32f4xx_hal_gpio.o(.revsh_text), (4 bytes).
    Removing stm32f4xx_hal_gpio.o(.rrx_text), (6 bytes).
    Removing stm32f4xx_hal_gpio.o(i.HAL_GPIO_DeInit), (356 bytes).
    Removing stm32f4xx_hal_gpio.o(i.HAL_GPIO_EXTI_Callback), (2 bytes).
    Removing stm32f4xx_hal_gpio.o(i.HAL_GPIO_LockPin), (46 bytes).
    Removing stm32f4xx_hal_gpio.o(i.HAL_GPIO_ReadPin), (16 bytes).
    Removing stm32f4xx_hal_pwr.o(.rev16_text), (4 bytes).
    Removing stm32f4xx_hal_pwr.o(.revsh_text), (4 bytes).
    Removing stm32f4xx_hal_pwr.o(.rrx_text), (6 bytes).
    Removing stm32f4xx_hal_pwr.o(i.HAL_PWR_ConfigPVD), (180 bytes).
    Removing stm32f4xx_hal_pwr.o(i.HAL_PWR_DeInit), (28 bytes).
    Removing stm32f4xx_hal_pwr.o(i.HAL_PWR_DisableBkUpAccess), (12 bytes).
    Removing stm32f4xx_hal_pwr.o(i.HAL_PWR_DisablePVD), (12 bytes).
    Removing stm32f4xx_hal_pwr.o(i.HAL_PWR_DisableSEVOnPend), (20 bytes).
    Removing stm32f4xx_hal_pwr.o(i.HAL_PWR_DisableSleepOnExit), (20 bytes).
    Removing stm32f4xx_hal_pwr.o(i.HAL_PWR_DisableWakeUpPin), (16 bytes).
    Removing stm32f4xx_hal_pwr.o(i.HAL_PWR_EnableBkUpAccess), (12 bytes).
    Removing stm32f4xx_hal_pwr.o(i.HAL_PWR_EnablePVD), (12 bytes).
    Removing stm32f4xx_hal_pwr.o(i.HAL_PWR_EnableSEVOnPend), (20 bytes).
    Removing stm32f4xx_hal_pwr.o(i.HAL_PWR_EnableSleepOnExit), (20 bytes).
    Removing stm32f4xx_hal_pwr.o(i.HAL_PWR_EnableWakeUpPin), (16 bytes).
    Removing stm32f4xx_hal_pwr.o(i.HAL_PWR_EnterSLEEPMode), (32 bytes).
    Removing stm32f4xx_hal_pwr.o(i.HAL_PWR_EnterSTANDBYMode), (40 bytes).
    Removing stm32f4xx_hal_pwr.o(i.HAL_PWR_EnterSTOPMode), (64 bytes).
    Removing stm32f4xx_hal_pwr.o(i.HAL_PWR_PVDCallback), (2 bytes).
    Removing stm32f4xx_hal_pwr.o(i.HAL_PWR_PVD_IRQHandler), (32 bytes).
    Removing stm32f4xx_hal_rcc.o(.rev16_text), (4 bytes).
    Removing stm32f4xx_hal_rcc.o(.revsh_text), (4 bytes).
    Removing stm32f4xx_hal_rcc.o(.rrx_text), (6 bytes).
    Removing stm32f4xx_hal_rcc.o(i.HAL_RCC_CSSCallback), (2 bytes).
    Removing stm32f4xx_hal_rcc.o(i.HAL_RCC_DeInit), (4 bytes).
    Removing stm32f4xx_hal_rcc.o(i.HAL_RCC_DisableCSS), (12 bytes).
    Removing stm32f4xx_hal_rcc.o(i.HAL_RCC_GetClockConfig), (68 bytes).
    Removing stm32f4xx_hal_rcc.o(i.HAL_RCC_GetOscConfig), (244 bytes).
    Removing stm32f4xx_hal_rcc.o(i.HAL_RCC_MCOConfig), (192 bytes).
    Removing stm32f4xx_hal_rcc.o(i.HAL_RCC_NMI_IRQHandler), (32 bytes).
    Removing stm32f4xx_hal_rcc_ex.o(.rev16_text), (4 bytes).
    Removing stm32f4xx_hal_rcc_ex.o(.revsh_text), (4 bytes).
    Removing stm32f4xx_hal_rcc_ex.o(.rrx_text), (6 bytes).
    Removing stm32f4xx_hal_rcc_ex.o(i.HAL_RCCEx_DisablePLLI2S), (56 bytes).
    Removing stm32f4xx_hal_rcc_ex.o(i.HAL_RCCEx_EnablePLLI2S), (112 bytes).
    Removing stm32f4xx_hal_rcc_ex.o(i.HAL_RCCEx_GetPeriphCLKConfig), (56 bytes).
    Removing stm32f4xx_hal_rcc_ex.o(i.HAL_RCCEx_GetPeriphCLKFreq), (144 bytes).
    Removing stm32f4xx_hal_rcc_ex.o(i.HAL_RCCEx_PeriphCLKConfig), (416 bytes).
    Removing stm32f4xx_hal_cortex.o(.rev16_text), (4 bytes).
    Removing stm32f4xx_hal_cortex.o(.revsh_text), (4 bytes).
    Removing stm32f4xx_hal_cortex.o(.rrx_text), (6 bytes).
    Removing stm32f4xx_hal_cortex.o(i.HAL_MPU_ConfigRegion), (92 bytes).
    Removing stm32f4xx_hal_cortex.o(i.HAL_MPU_Disable), (44 bytes).
    Removing stm32f4xx_hal_cortex.o(i.HAL_MPU_Enable), (64 bytes).
    Removing stm32f4xx_hal_cortex.o(i.HAL_NVIC_DisableIRQ), (68 bytes).
    Removing stm32f4xx_hal_cortex.o(i.HAL_NVIC_GetActive), (48 bytes).
    Removing stm32f4xx_hal_cortex.o(i.HAL_NVIC_GetPendingIRQ), (48 bytes).
    Removing stm32f4xx_hal_cortex.o(i.HAL_NVIC_GetPriority), (148 bytes).
    Removing stm32f4xx_hal_cortex.o(i.HAL_NVIC_GetPriorityGrouping), (8 bytes).
    Removing stm32f4xx_hal_cortex.o(i.HAL_NVIC_SetPendingIRQ), (36 bytes).
    Removing stm32f4xx_hal_cortex.o(i.HAL_SYSTICK_Callback), (2 bytes).
    Removing stm32f4xx_hal_cortex.o(i.HAL_SYSTICK_IRQHandler), (8 bytes).
    Removing stm32f4xx_hal_dma.o(.rev16_text), (4 bytes).
    Removing stm32f4xx_hal_dma.o(.revsh_text), (4 bytes).
    Removing stm32f4xx_hal_dma.o(.rrx_text), (6 bytes).
    Removing stm32f4xx_hal_dma.o(i.HAL_DMA_Abort), (170 bytes).
    Removing stm32f4xx_hal_dma.o(i.HAL_DMA_DeInit), (112 bytes).
    Removing stm32f4xx_hal_dma.o(i.HAL_DMA_GetError), (6 bytes).
    Removing stm32f4xx_hal_dma.o(i.HAL_DMA_GetState), (8 bytes).
    Removing stm32f4xx_hal_dma.o(i.HAL_DMA_PollForTransfer), (346 bytes).
    Removing stm32f4xx_hal_dma.o(i.HAL_DMA_RegisterCallback), (94 bytes).
    Removing stm32f4xx_hal_dma.o(i.HAL_DMA_Start), (102 bytes).
    Removing stm32f4xx_hal_dma.o(i.HAL_DMA_UnRegisterCallback), (124 bytes).
    Removing stm32f4xx_hal_dma_ex.o(.rev16_text), (4 bytes).
    Removing stm32f4xx_hal_dma_ex.o(.revsh_text), (4 bytes).
    Removing stm32f4xx_hal_dma_ex.o(.rrx_text), (6 bytes).
    Removing stm32f4xx_hal_dma_ex.o(i.DMA_MultiBufferSetConfig), (32 bytes).
    Removing stm32f4xx_hal_dma_ex.o(i.HAL_DMAEx_ChangeMemory), (18 bytes).
    Removing stm32f4xx_hal_dma_ex.o(i.HAL_DMAEx_MultiBufferStart), (124 bytes).
    Removing stm32f4xx_hal_dma_ex.o(i.HAL_DMAEx_MultiBufferStart_IT), (4056 bytes).
    Removing stm32f4xx_hal_uart.o(.rev16_text), (4 bytes).
    Removing stm32f4xx_hal_uart.o(.revsh_text), (4 bytes).
    Removing stm32f4xx_hal_uart.o(.rrx_text), (6 bytes).
    Removing stm32f4xx_hal_uart.o(i.HAL_HalfDuplex_EnableReceiver), (68 bytes).
    Removing stm32f4xx_hal_uart.o(i.HAL_HalfDuplex_EnableTransmitter), (68 bytes).
    Removing stm32f4xx_hal_uart.o(i.HAL_HalfDuplex_Init), (118 bytes).
    Removing stm32f4xx_hal_uart.o(i.HAL_LIN_Init), (142 bytes).
    Removing stm32f4xx_hal_uart.o(i.HAL_LIN_SendBreak), (62 bytes).
    Removing stm32f4xx_hal_uart.o(i.HAL_MultiProcessor_EnterMuteMode), (62 bytes).
    Removing stm32f4xx_hal_uart.o(i.HAL_MultiProcessor_ExitMuteMode), (62 bytes).
    Removing stm32f4xx_hal_uart.o(i.HAL_MultiProcessor_Init), (154 bytes).
    Removing stm32f4xx_hal_uart.o(i.HAL_UART_Abort), (170 bytes).
    Removing stm32f4xx_hal_uart.o(i.HAL_UART_AbortCpltCallback), (2 bytes).
    Removing stm32f4xx_hal_uart.o(i.HAL_UART_AbortReceive), (102 bytes).
    Removing stm32f4xx_hal_uart.o(i.HAL_UART_AbortTransmit), (90 bytes).
    Removing stm32f4xx_hal_uart.o(i.HAL_UART_AbortTransmitCpltCallback), (2 bytes).
    Removing stm32f4xx_hal_uart.o(i.HAL_UART_AbortTransmit_IT), (108 bytes).
    Removing stm32f4xx_hal_uart.o(i.HAL_UART_Abort_IT), (224 bytes).
    Removing stm32f4xx_hal_uart.o(i.HAL_UART_DMAPause), (124 bytes).
    Removing stm32f4xx_hal_uart.o(i.HAL_UART_DMAResume), (126 bytes).
    Removing stm32f4xx_hal_uart.o(i.HAL_UART_DMAStop), (102 bytes).
    Removing stm32f4xx_hal_uart.o(i.HAL_UART_DeInit), (58 bytes).
    Removing stm32f4xx_hal_uart.o(i.HAL_UART_GetError), (6 bytes).
    Removing stm32f4xx_hal_uart.o(i.HAL_UART_GetState), (20 bytes).
    Removing stm32f4xx_hal_uart.o(i.HAL_UART_MspDeInit), (2 bytes).
    Removing stm32f4xx_hal_uart.o(i.HAL_UART_Receive), (222 bytes).
    Removing stm32f4xx_hal_uart.o(i.HAL_UART_Receive_IT), (112 bytes).
    Removing stm32f4xx_hal_uart.o(i.HAL_UART_Transmit), (214 bytes).
    Removing stm32f4xx_hal_uart.o(i.HAL_UART_Transmit_IT), (88 bytes).
    Removing stm32f4xx_hal_uart.o(i.HAL_UART_TxCpltCallback), (2 bytes).
    Removing stm32f4xx_hal_uart.o(i.UART_DMARxAbortCallback), (52 bytes).
    Removing stm32f4xx_hal_uart.o(i.UART_DMATxAbortCallback), (52 bytes).
    Removing stm32f4xx_hal_uart.o(i.UART_DMATxOnlyAbortCallback), (24 bytes).
    Removing stm32f4xx_hal_uart.o(i.UART_WaitOnFlagUntilTimeout), (108 bytes).

281 unused section(s) (total 24112 bytes) removed from the image.

==============================================================================

Image Symbol Table

    Local Symbols

    Symbol Name                              Value     Ov Type        Size  Object(Section)

    ../clib/angel/boardlib.s                 0x00000000   Number         0  boardinit3.o ABSOLUTE
    ../clib/angel/boardlib.s                 0x00000000   Number         0  boardinit2.o ABSOLUTE
    ../clib/angel/boardlib.s                 0x00000000   Number         0  boardinit1.o ABSOLUTE
    ../clib/angel/boardlib.s                 0x00000000   Number         0  boardshut.o ABSOLUTE
    ../clib/angel/handlers.s                 0x00000000   Number         0  __scatter_zi.o ABSOLUTE
    ../clib/angel/handlers.s                 0x00000000   Number         0  __scatter_copy.o ABSOLUTE
    ../clib/angel/kernel.s                   0x00000000   Number         0  rtexit.o ABSOLUTE
    ../clib/angel/kernel.s                   0x00000000   Number         0  __rtentry.o ABSOLUTE
    ../clib/angel/kernel.s                   0x00000000   Number         0  rtexit2.o ABSOLUTE
    ../clib/angel/kernel.s                   0x00000000   Number         0  __rtentry4.o ABSOLUTE
    ../clib/angel/kernel.s                   0x00000000   Number         0  __rtentry2.o ABSOLUTE
    ../clib/angel/rt.s                       0x00000000   Number         0  rt_heap_descriptor_intlibspace.o ABSOLUTE
    ../clib/angel/rt.s                       0x00000000   Number         0  aeabi_ldiv0.o ABSOLUTE
    ../clib/angel/rt.s                       0x00000000   Number         0  rt_heap_descriptor.o ABSOLUTE
    ../clib/angel/rt.s                       0x00000000   Number         0  rt_div0.o ABSOLUTE
    ../clib/angel/rt.s                       0x00000000   Number         0  aeabi_ldiv0_sigfpe.o ABSOLUTE
    ../clib/angel/rt.s                       0x00000000   Number         0  rt_raise.o ABSOLUTE
    ../clib/angel/scatter.s                  0x00000000   Number         0  __scatter.o ABSOLUTE
    ../clib/angel/startup.s                  0x00000000   Number         0  __main.o ABSOLUTE
    ../clib/angel/sys.s                      0x00000000   Number         0  use_no_semi.o ABSOLUTE
    ../clib/angel/sys.s                      0x00000000   Number         0  libspace.o ABSOLUTE
    ../clib/angel/sys.s                      0x00000000   Number         0  mutex_dummy.o ABSOLUTE
    ../clib/angel/sys.s                      0x00000000   Number         0  sys_stackheap_outer.o ABSOLUTE
    ../clib/angel/sys.s                      0x00000000   Number         0  indicate_semi.o ABSOLUTE
    ../clib/angel/sysapp.c                   0x00000000   Number         0  sys_exit.o ABSOLUTE
    ../clib/angel/sysapp.c                   0x00000000   Number         0  sys_command.o ABSOLUTE
    ../clib/angel/sysapp.c                   0x00000000   Number         0  sys_wrch.o ABSOLUTE
    ../clib/armsys.c                         0x00000000   Number         0  argv_veneer.o ABSOLUTE
    ../clib/armsys.c                         0x00000000   Number         0  argv_veneer.o ABSOLUTE
    ../clib/armsys.c                         0x00000000   Number         0  no_argv.o ABSOLUTE
    ../clib/armsys.c                         0x00000000   Number         0  _get_argv_nomalloc.o ABSOLUTE
    ../clib/armsys.c                         0x00000000   Number         0  _get_argv.o ABSOLUTE
    ../clib/heap1.c                          0x00000000   Number         0  h1_final.o ABSOLUTE
    ../clib/heap1.c                          0x00000000   Number         0  h1_final_mt.o ABSOLUTE
    ../clib/heap1.c                          0x00000000   Number         0  h1_free.o ABSOLUTE
    ../clib/heap1.c                          0x00000000   Number         0  h1_init_mt.o ABSOLUTE
    ../clib/heap1.c                          0x00000000   Number         0  h1_extend.o ABSOLUTE
    ../clib/heap1.c                          0x00000000   Number         0  h1_alloc_mt.o ABSOLUTE
    ../clib/heap1.c                          0x00000000   Number         0  h1_free_mt.o ABSOLUTE
    ../clib/heap1.c                          0x00000000   Number         0  h1_init.o ABSOLUTE
    ../clib/heap1.c                          0x00000000   Number         0  h1_extend_mt.o ABSOLUTE
    ../clib/heap1.c                          0x00000000   Number         0  h1_alloc.o ABSOLUTE
    ../clib/heap2.c                          0x00000000   Number         0  fdtree.o ABSOLUTE
    ../clib/heap2.c                          0x00000000   Number         0  heap2mt.o ABSOLUTE
    ../clib/heap2.c                          0x00000000   Number         0  heap2.o ABSOLUTE
    ../clib/heapalloc.c                      0x00000000   Number         0  maybetermalloc1.o ABSOLUTE
    ../clib/heapalloc.c                      0x00000000   Number         0  hguard.o ABSOLUTE
    ../clib/heapalloc.c                      0x00000000   Number         0  hrguard.o ABSOLUTE
    ../clib/heapalloc.c                      0x00000000   Number         0  malloc.o ABSOLUTE
    ../clib/heapalloc.c                      0x00000000   Number         0  maybetermalloc1.o ABSOLUTE
    ../clib/heapalloc.c                      0x00000000   Number         0  heapstubs.o ABSOLUTE
    ../clib/heapalloc.c                      0x00000000   Number         0  maybetermalloc2.o ABSOLUTE
    ../clib/heapalloc.c                      0x00000000   Number         0  term_alloc.o ABSOLUTE
    ../clib/heapalloc.c                      0x00000000   Number         0  maybetermalloc2.o ABSOLUTE
    ../clib/heapalloc.c                      0x00000000   Number         0  free.o ABSOLUTE
    ../clib/heapalloc.c                      0x00000000   Number         0  init_alloc.o ABSOLUTE
    ../clib/heapaux.c                        0x00000000   Number         0  heapauxi.o ABSOLUTE
    ../clib/heapaux.c                        0x00000000   Number         0  heapauxa.o ABSOLUTE
    ../clib/libinit.s                        0x00000000   Number         0  libinit.o ABSOLUTE
    ../clib/libinit.s                        0x00000000   Number         0  libinit2.o ABSOLUTE
    ../clib/libinit.s                        0x00000000   Number         0  libshutdown.o ABSOLUTE
    ../clib/libinit.s                        0x00000000   Number         0  libshutdown2.o ABSOLUTE
    ../clib/longlong.s                       0x00000000   Number         0  lludivv7m.o ABSOLUTE
    ../clib/memcpset.s                       0x00000000   Number         0  rt_memclr_w.o ABSOLUTE
    ../clib/memcpset.s                       0x00000000   Number         0  rt_memcpy_w.o ABSOLUTE
    ../clib/signal.c                         0x00000000   Number         0  defsig_exit.o ABSOLUTE
    ../clib/signal.c                         0x00000000   Number         0  defsig_rtmem_outer.o ABSOLUTE
    ../clib/signal.c                         0x00000000   Number         0  defsig_rtmem_formal.o ABSOLUTE
    ../clib/signal.c                         0x00000000   Number         0  defsig_other.o ABSOLUTE
    ../clib/signal.c                         0x00000000   Number         0  defsig_segv_inner.o ABSOLUTE
    ../clib/signal.c                         0x00000000   Number         0  defsig_cppl_inner.o ABSOLUTE
    ../clib/signal.c                         0x00000000   Number         0  defsig_pvfn_inner.o ABSOLUTE
    ../clib/signal.c                         0x00000000   Number         0  defsig_stak_inner.o ABSOLUTE
    ../clib/signal.c                         0x00000000   Number         0  defsig_rtred_inner.o ABSOLUTE
    ../clib/signal.c                         0x00000000   Number         0  defsig_abrt_inner.o ABSOLUTE
    ../clib/signal.c                         0x00000000   Number         0  defsig_rtmem_inner.o ABSOLUTE
    ../clib/signal.c                         0x00000000   Number         0  defsig_fpe_formal.o ABSOLUTE
    ../clib/signal.c                         0x00000000   Number         0  defsig_fpe_outer.o ABSOLUTE
    ../clib/signal.c                         0x00000000   Number         0  defsig_fpe_inner.o ABSOLUTE
    ../clib/signal.c                         0x00000000   Number         0  defsig_general.o ABSOLUTE
    ../clib/signal.c                         0x00000000   Number         0  __raise.o ABSOLUTE
    ../clib/signal.s                         0x00000000   Number         0  defsig.o ABSOLUTE
    ../clib/stdlib.c                         0x00000000   Number         0  exit.o ABSOLUTE
    ../fplib/daddsub.s                       0x00000000   Number         0  daddsub_clz.o ABSOLUTE
    ../fplib/dcmpi.s                         0x00000000   Number         0  dcmpi.o ABSOLUTE
    ../fplib/ddiv.s                          0x00000000   Number         0  ddiv.o ABSOLUTE
    ../fplib/deqf.s                          0x00000000   Number         0  deqf.o ABSOLUTE
    ../fplib/dfix.s                          0x00000000   Number         0  dfix.o ABSOLUTE
    ../fplib/dflt.s                          0x00000000   Number         0  dflt_clz.o ABSOLUTE
    ../fplib/dleqf.s                         0x00000000   Number         0  dleqf.o ABSOLUTE
    ../fplib/dmul.s                          0x00000000   Number         0  dmul.o ABSOLUTE
    ../fplib/dnaninf.s                       0x00000000   Number         0  dnaninf.o ABSOLUTE
    ../fplib/dretinf.s                       0x00000000   Number         0  dretinf.o ABSOLUTE
    ../fplib/drleqf.s                        0x00000000   Number         0  drleqf.o ABSOLUTE
    ../fplib/fpinit.s                        0x00000000   Number         0  fpinit.o ABSOLUTE
    ../fplib/usenofp.s                       0x00000000   Number         0  usenofp.o ABSOLUTE
    ..\..\..\Mid_Drivers\Micrium\Software\uC-CPU\ARM-Cortex-M\ARMv7-M\ARM\cpu_a.asm 0x00000000   Number         0  cpu_a.o ABSOLUTE
    ..\..\..\Mid_Drivers\Micrium\Software\uC-CPU\ARM-Cortex-M\ARMv7-M\cpu_c.c 0x00000000   Number         0  cpu_c.o ABSOLUTE
    ..\..\..\Mid_Drivers\Micrium\Software\uC-CPU\cpu_core.c 0x00000000   Number         0  cpu_core.o ABSOLUTE
    ..\..\..\Mid_Drivers\Micrium\Software\uCOS-Hook\os_app_hooks.c 0x00000000   Number         0  os_app_hooks.o ABSOLUTE
    ..\..\..\Mid_Drivers\Micrium\Software\uCOS-Hook\os_bsp.c 0x00000000   Number         0  os_bsp.o ABSOLUTE
    ..\..\..\Mid_Drivers\Micrium\Software\uCOS-III\Ports\ARM-Cortex-M\ARMv7-M\ARM\os_cpu_a.asm 0x00000000   Number         0  os_cpu_a.o ABSOLUTE
    ..\..\..\Mid_Drivers\Micrium\Software\uCOS-III\Ports\ARM-Cortex-M\ARMv7-M\os_cpu_c.c 0x00000000   Number         0  os_cpu_c.o ABSOLUTE
    ..\..\..\Mid_Drivers\Micrium\Software\uCOS-III\Source\os_cfg_app.c 0x00000000   Number         0  os_cfg_app.o ABSOLUTE
    ..\..\..\Mid_Drivers\Micrium\Software\uCOS-III\Source\os_core.c 0x00000000   Number         0  os_core.o ABSOLUTE
    ..\..\..\Mid_Drivers\Micrium\Software\uCOS-III\Source\os_dbg.c 0x00000000   Number         0  os_dbg.o ABSOLUTE
    ..\..\..\Mid_Drivers\Micrium\Software\uCOS-III\Source\os_flag.c 0x00000000   Number         0  os_flag.o ABSOLUTE
    ..\..\..\Mid_Drivers\Micrium\Software\uCOS-III\Source\os_mem.c 0x00000000   Number         0  os_mem.o ABSOLUTE
    ..\..\..\Mid_Drivers\Micrium\Software\uCOS-III\Source\os_msg.c 0x00000000   Number         0  os_msg.o ABSOLUTE
    ..\..\..\Mid_Drivers\Micrium\Software\uCOS-III\Source\os_mutex.c 0x00000000   Number         0  os_mutex.o ABSOLUTE
    ..\..\..\Mid_Drivers\Micrium\Software\uCOS-III\Source\os_prio.c 0x00000000   Number         0  os_prio.o ABSOLUTE
    ..\..\..\Mid_Drivers\Micrium\Software\uCOS-III\Source\os_q.c 0x00000000   Number         0  os_q.o ABSOLUTE
    ..\..\..\Mid_Drivers\Micrium\Software\uCOS-III\Source\os_sem.c 0x00000000   Number         0  os_sem.o ABSOLUTE
    ..\..\..\Mid_Drivers\Micrium\Software\uCOS-III\Source\os_stat.c 0x00000000   Number         0  os_stat.o ABSOLUTE
    ..\..\..\Mid_Drivers\Micrium\Software\uCOS-III\Source\os_task.c 0x00000000   Number         0  os_task.o ABSOLUTE
    ..\..\..\Mid_Drivers\Micrium\Software\uCOS-III\Source\os_tick.c 0x00000000   Number         0  os_tick.o ABSOLUTE
    ..\..\..\Mid_Drivers\Micrium\Software\uCOS-III\Source\os_time.c 0x00000000   Number         0  os_time.o ABSOLUTE
    ..\..\..\Mid_Drivers\Micrium\Software\uCOS-III\Source\os_tmr.c 0x00000000   Number         0  os_tmr.o ABSOLUTE
    ..\..\..\Mid_Drivers\Micrium\Software\uCOS-III\Source\os_var.c 0x00000000   Number         0  os_var.o ABSOLUTE
    ..\..\..\My_Drivers\Drive\wLed.c         0x00000000   Number         0  wled.o ABSOLUTE
    ..\..\..\My_Drivers\Drive\wSerial.c      0x00000000   Number         0  wserial.o ABSOLUTE
    ..\..\..\My_Drivers\Src\wDma.c           0x00000000   Number         0  wdma.o ABSOLUTE
    ..\..\..\My_Drivers\Src\wGpio.c          0x00000000   Number         0  wgpio.o ABSOLUTE
    ..\..\..\My_Drivers\Src\wIt.c            0x00000000   Number         0  wit.o ABSOLUTE
    ..\..\..\My_Drivers\Src\wSprintf.c       0x00000000   Number         0  wsprintf.o ABSOLUTE
    ..\..\..\My_Drivers\Src\wStr.c           0x00000000   Number         0  wstr.o ABSOLUTE
    ..\..\..\My_Drivers\Src\wSys.c           0x00000000   Number         0  wsys.o ABSOLUTE
    ..\..\..\My_Drivers\Src\wUart.c          0x00000000   Number         0  wuart.o ABSOLUTE
    ..\..\..\ST_Drivers\ST32F4xx_HAL_CMSIS\Device\ST\STM32F4xx\Source\Templates\arm\startup_stm32f405xx.s 0x00000000   Number         0  startup_stm32f405xx.o ABSOLUTE
    ..\..\..\ST_Drivers\ST32F4xx_HAL_CMSIS\Device\ST\STM32F4xx\Source\Templates\system_stm32f4xx.c 0x00000000   Number         0  system_stm32f4xx.o ABSOLUTE
    ..\..\..\ST_Drivers\ST32F4xx_HAL_Driver\Src\stm32f4xx_hal.c 0x00000000   Number         0  stm32f4xx_hal.o ABSOLUTE
    ..\..\..\ST_Drivers\ST32F4xx_HAL_Driver\Src\stm32f4xx_hal_cortex.c 0x00000000   Number         0  stm32f4xx_hal_cortex.o ABSOLUTE
    ..\..\..\ST_Drivers\ST32F4xx_HAL_Driver\Src\stm32f4xx_hal_dma.c 0x00000000   Number         0  stm32f4xx_hal_dma.o ABSOLUTE
    ..\..\..\ST_Drivers\ST32F4xx_HAL_Driver\Src\stm32f4xx_hal_dma_ex.c 0x00000000   Number         0  stm32f4xx_hal_dma_ex.o ABSOLUTE
    ..\..\..\ST_Drivers\ST32F4xx_HAL_Driver\Src\stm32f4xx_hal_gpio.c 0x00000000   Number         0  stm32f4xx_hal_gpio.o ABSOLUTE
    ..\..\..\ST_Drivers\ST32F4xx_HAL_Driver\Src\stm32f4xx_hal_pwr.c 0x00000000   Number         0  stm32f4xx_hal_pwr.o ABSOLUTE
    ..\..\..\ST_Drivers\ST32F4xx_HAL_Driver\Src\stm32f4xx_hal_rcc.c 0x00000000   Number         0  stm32f4xx_hal_rcc.o ABSOLUTE
    ..\..\..\ST_Drivers\ST32F4xx_HAL_Driver\Src\stm32f4xx_hal_rcc_ex.c 0x00000000   Number         0  stm32f4xx_hal_rcc_ex.o ABSOLUTE
    ..\..\..\ST_Drivers\ST32F4xx_HAL_Driver\Src\stm32f4xx_hal_uart.c 0x00000000   Number         0  stm32f4xx_hal_uart.o ABSOLUTE
    ..\Main\main.c                           0x00000000   Number         0  main.o ABSOLUTE
    ..\\..\\..\\Mid_Drivers\\Micrium\\Software\\uCOS-Hook\\os_bsp.c 0x00000000   Number         0  os_bsp.o ABSOLUTE
    ..\\..\\..\\My_Drivers\\Drive\\wLed.c    0x00000000   Number         0  wled.o ABSOLUTE
    ..\\..\\..\\My_Drivers\\Drive\\wSerial.c 0x00000000   Number         0  wserial.o ABSOLUTE
    ..\\..\\..\\My_Drivers\\Src\\wDma.c      0x00000000   Number         0  wdma.o ABSOLUTE
    ..\\..\\..\\My_Drivers\\Src\\wGpio.c     0x00000000   Number         0  wgpio.o ABSOLUTE
    ..\\..\\..\\My_Drivers\\Src\\wIt.c       0x00000000   Number         0  wit.o ABSOLUTE
    ..\\..\\..\\My_Drivers\\Src\\wStr.c      0x00000000   Number         0  wstr.o ABSOLUTE
    ..\\..\\..\\My_Drivers\\Src\\wSys.c      0x00000000   Number         0  wsys.o ABSOLUTE
    ..\\..\\..\\My_Drivers\\Src\\wUart.c     0x00000000   Number         0  wuart.o ABSOLUTE
    ..\\..\\..\\ST_Drivers\\ST32F4xx_HAL_CMSIS\\Device\\ST\\STM32F4xx\\Source\\Templates\\system_stm32f4xx.c 0x00000000   Number         0  system_stm32f4xx.o ABSOLUTE
    ..\\..\\..\\ST_Drivers\\ST32F4xx_HAL_Driver\\Src\\stm32f4xx_hal.c 0x00000000   Number         0  stm32f4xx_hal.o ABSOLUTE
    ..\\..\\..\\ST_Drivers\\ST32F4xx_HAL_Driver\\Src\\stm32f4xx_hal_cortex.c 0x00000000   Number         0  stm32f4xx_hal_cortex.o ABSOLUTE
    ..\\..\\..\\ST_Drivers\\ST32F4xx_HAL_Driver\\Src\\stm32f4xx_hal_dma.c 0x00000000   Number         0  stm32f4xx_hal_dma.o ABSOLUTE
    ..\\..\\..\\ST_Drivers\\ST32F4xx_HAL_Driver\\Src\\stm32f4xx_hal_dma_ex.c 0x00000000   Number         0  stm32f4xx_hal_dma_ex.o ABSOLUTE
    ..\\..\\..\\ST_Drivers\\ST32F4xx_HAL_Driver\\Src\\stm32f4xx_hal_gpio.c 0x00000000   Number         0  stm32f4xx_hal_gpio.o ABSOLUTE
    ..\\..\\..\\ST_Drivers\\ST32F4xx_HAL_Driver\\Src\\stm32f4xx_hal_pwr.c 0x00000000   Number         0  stm32f4xx_hal_pwr.o ABSOLUTE
    ..\\..\\..\\ST_Drivers\\ST32F4xx_HAL_Driver\\Src\\stm32f4xx_hal_rcc.c 0x00000000   Number         0  stm32f4xx_hal_rcc.o ABSOLUTE
    ..\\..\\..\\ST_Drivers\\ST32F4xx_HAL_Driver\\Src\\stm32f4xx_hal_rcc_ex.c 0x00000000   Number         0  stm32f4xx_hal_rcc_ex.o ABSOLUTE
    ..\\..\\..\\ST_Drivers\\ST32F4xx_HAL_Driver\\Src\\stm32f4xx_hal_uart.c 0x00000000   Number         0  stm32f4xx_hal_uart.o ABSOLUTE
    ..\\Main\\main.c                         0x00000000   Number         0  main.o ABSOLUTE
    dc.s                                     0x00000000   Number         0  dc.o ABSOLUTE
    RESET                                    0x08000000   Section      392  startup_stm32f405xx.o(RESET)
    !!!main                                  0x08000188   Section        8  __main.o(!!!main)
    !!!scatter                               0x08000190   Section       52  __scatter.o(!!!scatter)
    !!handler_copy                           0x080001c4   Section       26  __scatter_copy.o(!!handler_copy)
    !!handler_zi                             0x080001e0   Section       28  __scatter_zi.o(!!handler_zi)
    .ARM.Collect$$libinit$$00000000          0x080001fc   Section        2  libinit.o(.ARM.Collect$$libinit$$00000000)
    .ARM.Collect$$libinit$$00000002          0x080001fe   Section        0  libinit2.o(.ARM.Collect$$libinit$$00000002)
    .ARM.Collect$$libinit$$00000004          0x080001fe   Section        0  libinit2.o(.ARM.Collect$$libinit$$00000004)
    .ARM.Collect$$libinit$$00000005          0x080001fe   Section        8  libinit2.o(.ARM.Collect$$libinit$$00000005)
    .ARM.Collect$$libinit$$0000000A          0x08000206   Section        0  libinit2.o(.ARM.Collect$$libinit$$0000000A)
    .ARM.Collect$$libinit$$0000000C          0x08000206   Section        0  libinit2.o(.ARM.Collect$$libinit$$0000000C)
    .ARM.Collect$$libinit$$0000000E          0x08000206   Section        0  libinit2.o(.ARM.Collect$$libinit$$0000000E)
    .ARM.Collect$$libinit$$00000011          0x08000206   Section        0  libinit2.o(.ARM.Collect$$libinit$$00000011)
    .ARM.Collect$$libinit$$00000013          0x08000206   Section        0  libinit2.o(.ARM.Collect$$libinit$$00000013)
    .ARM.Collect$$libinit$$00000015          0x08000206   Section        0  libinit2.o(.ARM.Collect$$libinit$$00000015)
    .ARM.Collect$$libinit$$00000017          0x08000206   Section        0  libinit2.o(.ARM.Collect$$libinit$$00000017)
    .ARM.Collect$$libinit$$00000019          0x08000206   Section        0  libinit2.o(.ARM.Collect$$libinit$$00000019)
    .ARM.Collect$$libinit$$0000001B          0x08000206   Section        0  libinit2.o(.ARM.Collect$$libinit$$0000001B)
    .ARM.Collect$$libinit$$0000001D          0x08000206   Section        0  libinit2.o(.ARM.Collect$$libinit$$0000001D)
    .ARM.Collect$$libinit$$0000001F          0x08000206   Section        0  libinit2.o(.ARM.Collect$$libinit$$0000001F)
    .ARM.Collect$$libinit$$00000021          0x08000206   Section        0  libinit2.o(.ARM.Collect$$libinit$$00000021)
    .ARM.Collect$$libinit$$00000023          0x08000206   Section        0  libinit2.o(.ARM.Collect$$libinit$$00000023)
    .ARM.Collect$$libinit$$00000025          0x08000206   Section        0  libinit2.o(.ARM.Collect$$libinit$$00000025)
    .ARM.Collect$$libinit$$0000002C          0x08000206   Section        0  libinit2.o(.ARM.Collect$$libinit$$0000002C)
    .ARM.Collect$$libinit$$0000002E          0x08000206   Section        0  libinit2.o(.ARM.Collect$$libinit$$0000002E)
    .ARM.Collect$$libinit$$00000030          0x08000206   Section        0  libinit2.o(.ARM.Collect$$libinit$$00000030)
    .ARM.Collect$$libinit$$00000032          0x08000206   Section        0  libinit2.o(.ARM.Collect$$libinit$$00000032)
    .ARM.Collect$$libinit$$00000033          0x08000206   Section        2  libinit2.o(.ARM.Collect$$libinit$$00000033)
    .ARM.Collect$$libshutdown$$00000000      0x08000208   Section        2  libshutdown.o(.ARM.Collect$$libshutdown$$00000000)
    .ARM.Collect$$libshutdown$$00000002      0x0800020a   Section        0  libshutdown2.o(.ARM.Collect$$libshutdown$$00000002)
    .ARM.Collect$$libshutdown$$00000004      0x0800020a   Section        0  libshutdown2.o(.ARM.Collect$$libshutdown$$00000004)
    .ARM.Collect$$libshutdown$$00000007      0x0800020a   Section        0  libshutdown2.o(.ARM.Collect$$libshutdown$$00000007)
    .ARM.Collect$$libshutdown$$0000000A      0x0800020a   Section        0  libshutdown2.o(.ARM.Collect$$libshutdown$$0000000A)
    .ARM.Collect$$libshutdown$$0000000C      0x0800020a   Section        0  libshutdown2.o(.ARM.Collect$$libshutdown$$0000000C)
    .ARM.Collect$$libshutdown$$0000000F      0x0800020a   Section        0  libshutdown2.o(.ARM.Collect$$libshutdown$$0000000F)
    .ARM.Collect$$libshutdown$$00000010      0x0800020a   Section        2  libshutdown2.o(.ARM.Collect$$libshutdown$$00000010)
    .ARM.Collect$$rtentry$$00000000          0x0800020c   Section        0  __rtentry.o(.ARM.Collect$$rtentry$$00000000)
    .ARM.Collect$$rtentry$$00000002          0x0800020c   Section        0  __rtentry2.o(.ARM.Collect$$rtentry$$00000002)
    .ARM.Collect$$rtentry$$00000004          0x0800020c   Section        6  __rtentry4.o(.ARM.Collect$$rtentry$$00000004)
    .ARM.Collect$$rtentry$$00000009          0x08000212   Section        0  __rtentry2.o(.ARM.Collect$$rtentry$$00000009)
    .ARM.Collect$$rtentry$$0000000A          0x08000212   Section        4  __rtentry2.o(.ARM.Collect$$rtentry$$0000000A)
    .ARM.Collect$$rtentry$$0000000C          0x08000216   Section        0  __rtentry2.o(.ARM.Collect$$rtentry$$0000000C)
    .ARM.Collect$$rtentry$$0000000D          0x08000216   Section        8  __rtentry2.o(.ARM.Collect$$rtentry$$0000000D)
    .ARM.Collect$$rtexit$$00000000           0x0800021e   Section        2  rtexit.o(.ARM.Collect$$rtexit$$00000000)
    .ARM.Collect$$rtexit$$00000002           0x08000220   Section        0  rtexit2.o(.ARM.Collect$$rtexit$$00000002)
    .ARM.Collect$$rtexit$$00000003           0x08000220   Section        4  rtexit2.o(.ARM.Collect$$rtexit$$00000003)
    .ARM.Collect$$rtexit$$00000004           0x08000224   Section        6  rtexit2.o(.ARM.Collect$$rtexit$$00000004)
    .emb_text                                0x0800022c   Section        0  maybetermalloc1.o(.emb_text)
    .text                                    0x0800022c   Section       52  cpu_a.o(.text)
    .text                                    0x08000260   Section       64  startup_stm32f405xx.o(.text)
    .text                                    0x080002a0   Section        0  h1_alloc.o(.text)
    .text                                    0x080002fe   Section        0  h1_free.o(.text)
    .text                                    0x0800034c   Section      238  lludivv7m.o(.text)
    .text                                    0x0800043a   Section       78  rt_memclr_w.o(.text)
    .text                                    0x08000488   Section        0  heapauxi.o(.text)
    .text                                    0x08000490   Section        8  rt_heap_descriptor_intlibspace.o(.text)
    .text                                    0x08000498   Section        0  hguard.o(.text)
    .text                                    0x0800049c   Section        0  init_alloc.o(.text)
    .text                                    0x08000526   Section        0  h1_init.o(.text)
    .text                                    0x08000534   Section        8  libspace.o(.text)
    .text                                    0x0800053c   Section        0  h1_extend.o(.text)
    .text                                    0x08000570   Section        0  defsig_rtmem_outer.o(.text)
    .text                                    0x0800057e   Section        2  use_no_semi.o(.text)
    .text                                    0x08000580   Section        0  indicate_semi.o(.text)
    .text                                    0x08000580   Section       74  sys_stackheap_outer.o(.text)
    .text                                    0x080005ca   Section        0  exit.o(.text)
    .text                                    0x080005dc   Section        0  defsig_exit.o(.text)
    .text                                    0x080005e8   Section        0  defsig_rtmem_inner.o(.text)
    .text                                    0x08000638   Section        0  sys_exit.o(.text)
    .text                                    0x08000644   Section        0  defsig_general.o(.text)
    .text                                    0x08000676   Section        0  sys_wrch.o(.text)
    CODE                                     0x08000684   Section      248  os_cpu_a.o(CODE)
    i.BusFault_Handler                       0x0800077c   Section        0  wit.o(i.BusFault_Handler)
    i.CPU_Init                               0x08000780   Section        0  cpu_core.o(i.CPU_Init)
    i.CPU_TS_Init                            0x08000788   Section        0  cpu_core.o(i.CPU_TS_Init)
    CPU_TS_Init                              0x08000789   Thumb Code    14  cpu_core.o(i.CPU_TS_Init)
    i.CPU_TS_TmrFreqSet                      0x0800079c   Section        0  cpu_core.o(i.CPU_TS_TmrFreqSet)
    i.CPU_TS_TmrInit                         0x080007a8   Section        0  os_bsp.o(i.CPU_TS_TmrInit)
    i.CPU_TS_TmrRd                           0x080007dc   Section        0  os_bsp.o(i.CPU_TS_TmrRd)
    i.DMA1_Stream0_IRQHandler                0x080007e8   Section        0  wdma.o(i.DMA1_Stream0_IRQHandler)
    i.DMA1_Stream1_IRQHandler                0x08000810   Section        0  wdma.o(i.DMA1_Stream1_IRQHandler)
    i.DMA1_Stream2_IRQHandler                0x08000838   Section        0  wdma.o(i.DMA1_Stream2_IRQHandler)
    i.DMA1_Stream3_IRQHandler                0x08000860   Section        0  wdma.o(i.DMA1_Stream3_IRQHandler)
    i.DMA1_Stream4_IRQHandler                0x08000888   Section        0  wdma.o(i.DMA1_Stream4_IRQHandler)
    i.DMA1_Stream5_IRQHandler                0x080008b0   Section        0  wdma.o(i.DMA1_Stream5_IRQHandler)
    i.DMA1_Stream6_IRQHandler                0x080008d8   Section        0  wdma.o(i.DMA1_Stream6_IRQHandler)
    i.DMA1_Stream7_IRQHandler                0x08000900   Section        0  wdma.o(i.DMA1_Stream7_IRQHandler)
    i.DMA2_Stream0_IRQHandler                0x08000928   Section        0  wdma.o(i.DMA2_Stream0_IRQHandler)
    i.DMA2_Stream1_IRQHandler                0x08000950   Section        0  wdma.o(i.DMA2_Stream1_IRQHandler)
    i.DMA2_Stream2_IRQHandler                0x08000978   Section        0  wdma.o(i.DMA2_Stream2_IRQHandler)
    i.DMA2_Stream3_IRQHandler                0x080009a0   Section        0  wdma.o(i.DMA2_Stream3_IRQHandler)
    i.DMA2_Stream4_IRQHandler                0x080009c8   Section        0  wdma.o(i.DMA2_Stream4_IRQHandler)
    i.DMA2_Stream5_IRQHandler                0x080009f0   Section        0  wdma.o(i.DMA2_Stream5_IRQHandler)
    i.DMA2_Stream6_IRQHandler                0x08000a18   Section        0  wdma.o(i.DMA2_Stream6_IRQHandler)
    i.DMA2_Stream7_IRQHandler                0x08000a40   Section        0  wdma.o(i.DMA2_Stream7_IRQHandler)
    i.DMA_CalcBaseAndBitshift                0x08000a68   Section        0  stm32f4xx_hal_dma.o(i.DMA_CalcBaseAndBitshift)
    DMA_CalcBaseAndBitshift                  0x08000a69   Thumb Code    46  stm32f4xx_hal_dma.o(i.DMA_CalcBaseAndBitshift)
    i.DMA_CheckFifoParam                     0x08000a9c   Section        0  stm32f4xx_hal_dma.o(i.DMA_CheckFifoParam)
    DMA_CheckFifoParam                       0x08000a9d   Thumb Code   170  stm32f4xx_hal_dma.o(i.DMA_CheckFifoParam)
    i.DMA_SetConfig                          0x08000b46   Section        0  stm32f4xx_hal_dma.o(i.DMA_SetConfig)
    DMA_SetConfig                            0x08000b47   Thumb Code    44  stm32f4xx_hal_dma.o(i.DMA_SetConfig)
    i.DebugMon_Handler                       0x08000b72   Section        0  wit.o(i.DebugMon_Handler)
    i.EXTI0_IRQHandler                       0x08000b74   Section        0  wgpio.o(i.EXTI0_IRQHandler)
    i.EXTI15_10_IRQHandler                   0x08000b8c   Section        0  wgpio.o(i.EXTI15_10_IRQHandler)
    i.EXTI1_IRQHandler                       0x08000bce   Section        0  wgpio.o(i.EXTI1_IRQHandler)
    i.EXTI2_IRQHandler                       0x08000be6   Section        0  wgpio.o(i.EXTI2_IRQHandler)
    i.EXTI3_IRQHandler                       0x08000bfe   Section        0  wgpio.o(i.EXTI3_IRQHandler)
    i.EXTI4_IRQHandler                       0x08000c16   Section        0  wgpio.o(i.EXTI4_IRQHandler)
    i.EXTI9_5_IRQHandler                     0x08000c2e   Section        0  wgpio.o(i.EXTI9_5_IRQHandler)
    i.HAL_DMA_Abort_IT                       0x08000c62   Section        0  stm32f4xx_hal_dma.o(i.HAL_DMA_Abort_IT)
    i.HAL_DMA_IRQHandler                     0x08000c8c   Section        0  stm32f4xx_hal_dma.o(i.HAL_DMA_IRQHandler)
    i.HAL_DMA_Init                           0x08000ecc   Section        0  stm32f4xx_hal_dma.o(i.HAL_DMA_Init)
    i.HAL_DMA_Start_IT                       0x08000fb8   Section        0  stm32f4xx_hal_dma.o(i.HAL_DMA_Start_IT)
    i.HAL_GPIO_EXTI_Callback                 0x08001058   Section        0  wgpio.o(i.HAL_GPIO_EXTI_Callback)
    i.HAL_GPIO_EXTI_IRQHandler               0x08001114   Section        0  stm32f4xx_hal_gpio.o(i.HAL_GPIO_EXTI_IRQHandler)
    i.HAL_GPIO_Init                          0x08001130   Section        0  stm32f4xx_hal_gpio.o(i.HAL_GPIO_Init)
    i.HAL_GPIO_TogglePin                     0x08001330   Section        0  stm32f4xx_hal_gpio.o(i.HAL_GPIO_TogglePin)
    i.HAL_GPIO_WritePin                      0x08001342   Section        0  stm32f4xx_hal_gpio.o(i.HAL_GPIO_WritePin)
    i.HAL_GetREVID                           0x08001350   Section        0  stm32f4xx_hal.o(i.HAL_GetREVID)
    i.HAL_GetTick                            0x0800135c   Section        0  stm32f4xx_hal.o(i.HAL_GetTick)
    i.HAL_IncTick                            0x08001368   Section        0  stm32f4xx_hal.o(i.HAL_IncTick)
    i.HAL_Init                               0x08001380   Section        0  stm32f4xx_hal.o(i.HAL_Init)
    i.HAL_InitTick                           0x080013bc   Section        0  stm32f4xx_hal.o(i.HAL_InitTick)
    i.HAL_MspInit                            0x08001408   Section        0  wsys.o(i.HAL_MspInit)
    i.HAL_NVIC_ClearPendingIRQ               0x080014d4   Section        0  stm32f4xx_hal_cortex.o(i.HAL_NVIC_ClearPendingIRQ)
    i.HAL_NVIC_EnableIRQ                     0x080014f8   Section        0  stm32f4xx_hal_cortex.o(i.HAL_NVIC_EnableIRQ)
    i.HAL_NVIC_SetPriority                   0x08001518   Section        0  stm32f4xx_hal_cortex.o(i.HAL_NVIC_SetPriority)
    i.HAL_NVIC_SetPriorityGrouping           0x08001594   Section        0  stm32f4xx_hal_cortex.o(i.HAL_NVIC_SetPriorityGrouping)
    i.HAL_NVIC_SystemReset                   0x080015bc   Section        0  stm32f4xx_hal_cortex.o(i.HAL_NVIC_SystemReset)
    i.HAL_RCC_ClockConfig                    0x08001600   Section        0  stm32f4xx_hal_rcc.o(i.HAL_RCC_ClockConfig)
    i.HAL_RCC_DeInit                         0x08001780   Section        0  stm32f4xx_hal_rcc_ex.o(i.HAL_RCC_DeInit)
    i.HAL_RCC_EnableCSS                      0x080018f8   Section        0  stm32f4xx_hal_rcc.o(i.HAL_RCC_EnableCSS)
    i.HAL_RCC_GetHCLKFreq                    0x08001904   Section        0  stm32f4xx_hal_rcc.o(i.HAL_RCC_GetHCLKFreq)
    i.HAL_RCC_GetPCLK1Freq                   0x08001910   Section        0  stm32f4xx_hal_rcc.o(i.HAL_RCC_GetPCLK1Freq)
    i.HAL_RCC_GetPCLK2Freq                   0x08001930   Section        0  stm32f4xx_hal_rcc.o(i.HAL_RCC_GetPCLK2Freq)
    i.HAL_RCC_GetSysClockFreq                0x08001950   Section        0  stm32f4xx_hal_rcc.o(i.HAL_RCC_GetSysClockFreq)
    i.HAL_RCC_OscConfig                      0x08001a00   Section        0  stm32f4xx_hal_rcc.o(i.HAL_RCC_OscConfig)
    i.HAL_SYSTICK_CLKSourceConfig            0x08001e48   Section        0  stm32f4xx_hal_cortex.o(i.HAL_SYSTICK_CLKSourceConfig)
    i.HAL_SYSTICK_Config                     0x08001e70   Section        0  stm32f4xx_hal_cortex.o(i.HAL_SYSTICK_Config)
    i.HAL_UART_AbortReceiveCpltCallback      0x08001ea4   Section        0  stm32f4xx_hal_uart.o(i.HAL_UART_AbortReceiveCpltCallback)
    i.HAL_UART_AbortReceive_IT               0x08001ea8   Section        0  stm32f4xx_hal_uart.o(i.HAL_UART_AbortReceive_IT)
    i.HAL_UART_ErrorCallback                 0x08001f20   Section        0  stm32f4xx_hal_uart.o(i.HAL_UART_ErrorCallback)
    i.HAL_UART_IRQHandler                    0x08001f24   Section        0  stm32f4xx_hal_uart.o(i.HAL_UART_IRQHandler)
    i.HAL_UART_Init                          0x08002070   Section        0  stm32f4xx_hal_uart.o(i.HAL_UART_Init)
    i.HAL_UART_MspInit                       0x080020e2   Section        0  stm32f4xx_hal_uart.o(i.HAL_UART_MspInit)
    i.HAL_UART_Receive_DMA                   0x080020e4   Section        0  stm32f4xx_hal_uart.o(i.HAL_UART_Receive_DMA)
    i.HAL_UART_RxCpltCallback                0x080021a8   Section        0  stm32f4xx_hal_uart.o(i.HAL_UART_RxCpltCallback)
    i.HAL_UART_RxCpltCallback_Idle           0x080021ac   Section        0  wuart.o(i.HAL_UART_RxCpltCallback_Idle)
    i.HAL_UART_RxHalfCpltCallback            0x080021f8   Section        0  stm32f4xx_hal_uart.o(i.HAL_UART_RxHalfCpltCallback)
    i.HAL_UART_Transmit_DMA                  0x080021fc   Section        0  stm32f4xx_hal_uart.o(i.HAL_UART_Transmit_DMA)
    i.HAL_UART_TxCpltCallback                0x08002298   Section        0  wuart.o(i.HAL_UART_TxCpltCallback)
    i.HAL_UART_TxHalfCpltCallback            0x080022d8   Section        0  stm32f4xx_hal_uart.o(i.HAL_UART_TxHalfCpltCallback)
    i.HardFault_Handler                      0x080022da   Section        0  wit.o(i.HardFault_Handler)
    i.MainTask                               0x080022e0   Section        0  main.o(i.MainTask)
    MainTask                                 0x080022e1   Thumb Code    98  main.o(i.MainTask)
    i.MemManage_Handler                      0x08002370   Section        0  wit.o(i.MemManage_Handler)
    i.NMI_Handler                            0x08002374   Section        0  wit.o(i.NMI_Handler)
    i.OSCfg_Init                             0x08002376   Section        0  os_cfg_app.o(i.OSCfg_Init)
    i.OSInit                                 0x08002378   Section        0  os_core.o(i.OSInit)
    i.OSInitHook                             0x0800249c   Section        0  os_cpu_c.o(i.OSInitHook)
    i.OSIntEnter                             0x080024d0   Section        0  os_core.o(i.OSIntEnter)
    i.OSIntExit                              0x080024fc   Section        0  os_core.o(i.OSIntExit)
    i.OSMutexCreate                          0x080025d0   Section        0  os_mutex.o(i.OSMutexCreate)
    i.OSMutexPend                            0x08002654   Section        0  os_mutex.o(i.OSMutexPend)
    i.OSMutexPost                            0x0800280c   Section        0  os_mutex.o(i.OSMutexPost)
    i.OSSched                                0x0800295c   Section        0  os_core.o(i.OSSched)
    i.OSSemCreate                            0x080029f8   Section        0  os_sem.o(i.OSSemCreate)
    i.OSSemPend                              0x08002a78   Section        0  os_sem.o(i.OSSemPend)
    i.OSSemPost                              0x08002bcc   Section        0  os_sem.o(i.OSSemPost)
    i.OSSemSet                               0x08002c86   Section        0  os_sem.o(i.OSSemSet)
    i.OSStart                                0x08002cd4   Section        0  os_core.o(i.OSStart)
    i.OSStatReset                            0x08002d6c   Section        0  os_stat.o(i.OSStatReset)
    i.OSStatTaskCPUUsageInit                 0x08002e84   Section        0  os_stat.o(i.OSStatTaskCPUUsageInit)
    i.OSStatTaskHook                         0x08002f78   Section        0  os_cpu_c.o(i.OSStatTaskHook)
    i.OSTaskCreate                           0x08002f7c   Section        0  os_task.o(i.OSTaskCreate)
    i.OSTaskCreateHook                       0x080030c0   Section        0  os_cpu_c.o(i.OSTaskCreateHook)
    i.OSTaskDel                              0x080030c4   Section        0  os_task.o(i.OSTaskDel)
    i.OSTaskDelHook                          0x08003240   Section        0  os_cpu_c.o(i.OSTaskDelHook)
    i.OSTaskResume                           0x08003242   Section        0  os_task.o(i.OSTaskResume)
    i.OSTaskReturnHook                       0x08003342   Section        0  os_cpu_c.o(i.OSTaskReturnHook)
    i.OSTaskStkChk                           0x08003344   Section        0  os_task.o(i.OSTaskStkChk)
    i.OSTaskStkInit                          0x080033f8   Section        0  os_cpu_c.o(i.OSTaskStkInit)
    i.OSTaskSuspend                          0x080034c8   Section        0  os_task.o(i.OSTaskSuspend)
    i.OSTaskSwHook                           0x08003638   Section        0  os_cpu_c.o(i.OSTaskSwHook)
    i.OSTimeDly                              0x08003688   Section        0  os_time.o(i.OSTimeDly)
    i.OSTimeTick                             0x0800371c   Section        0  os_time.o(i.OSTimeTick)
    i.OSTimeTickHook                         0x0800373c   Section        0  os_cpu_c.o(i.OSTimeTickHook)
    i.OSTmrCreate                            0x08003740   Section        0  os_tmr.o(i.OSTmrCreate)
    i.OSTmrSet                               0x080037ec   Section        0  os_tmr.o(i.OSTmrSet)
    i.OSTmrStart                             0x08003828   Section        0  os_tmr.o(i.OSTmrStart)
    i.OS_CPU_SysTickHandler                  0x08003900   Section        0  os_cpu_c.o(i.OS_CPU_SysTickHandler)
    i.OS_CPU_SysTickInit                     0x08003930   Section        0  os_cpu_c.o(i.OS_CPU_SysTickInit)
    i.OS_Dbg_Init                            0x08003968   Section        0  os_dbg.o(i.OS_Dbg_Init)
    i.OS_IdleTask                            0x08003b90   Section        0  os_core.o(i.OS_IdleTask)
    i.OS_IdleTaskInit                        0x08003bcc   Section        0  os_core.o(i.OS_IdleTaskInit)
    i.OS_MemInit                             0x08003c3c   Section        0  os_mem.o(i.OS_MemInit)
    i.OS_MsgPoolInit                         0x08003c54   Section        0  os_msg.o(i.OS_MsgPoolInit)
    i.OS_MutexDbgListAdd                     0x08003cb0   Section        0  os_mutex.o(i.OS_MutexDbgListAdd)
    i.OS_MutexGrpAdd                         0x08003ce0   Section        0  os_mutex.o(i.OS_MutexGrpAdd)
    i.OS_MutexGrpPostAll                     0x08003ce8   Section        0  os_mutex.o(i.OS_MutexGrpPostAll)
    i.OS_MutexGrpPrioFindHighest             0x08003d46   Section        0  os_mutex.o(i.OS_MutexGrpPrioFindHighest)
    i.OS_MutexGrpRemove                      0x08003d70   Section        0  os_mutex.o(i.OS_MutexGrpRemove)
    i.OS_Pend                                0x08003d8c   Section        0  os_core.o(i.OS_Pend)
    i.OS_PendDbgNameAdd                      0x08003dcc   Section        0  os_core.o(i.OS_PendDbgNameAdd)
    i.OS_PendDbgNameRemove                   0x08003e24   Section        0  os_core.o(i.OS_PendDbgNameRemove)
    i.OS_PendListChangePrio                  0x08003e48   Section        0  os_core.o(i.OS_PendListChangePrio)
    i.OS_PendListInit                        0x08003e6a   Section        0  os_core.o(i.OS_PendListInit)
    i.OS_PendListInsertPrio                  0x08003e74   Section        0  os_core.o(i.OS_PendListInsertPrio)
    i.OS_PendListRemove                      0x08003eda   Section        0  os_core.o(i.OS_PendListRemove)
    i.OS_Post                                0x08003f28   Section        0  os_core.o(i.OS_Post)
    i.OS_PrioGetHighest                      0x08003fd4   Section        0  os_prio.o(i.OS_PrioGetHighest)
    i.OS_PrioInit                            0x08003ffc   Section        0  os_prio.o(i.OS_PrioInit)
    i.OS_PrioInsert                          0x08004014   Section        0  os_prio.o(i.OS_PrioInsert)
    i.OS_PrioRemove                          0x08004048   Section        0  os_prio.o(i.OS_PrioRemove)
    i.OS_RdyListInit                         0x0800407c   Section        0  os_core.o(i.OS_RdyListInit)
    i.OS_RdyListInsert                       0x080040a0   Section        0  os_core.o(i.OS_RdyListInsert)
    i.OS_RdyListInsertHead                   0x080040cc   Section        0  os_core.o(i.OS_RdyListInsertHead)
    i.OS_RdyListInsertTail                   0x0800410c   Section        0  os_core.o(i.OS_RdyListInsertTail)
    i.OS_RdyListRemove                       0x08004148   Section        0  os_core.o(i.OS_RdyListRemove)
    i.OS_SemDbgListAdd                       0x080041a4   Section        0  os_sem.o(i.OS_SemDbgListAdd)
    i.OS_StatTask                            0x080041d4   Section        0  os_stat.o(i.OS_StatTask)
    i.OS_StatTaskInit                        0x08004514   Section        0  os_stat.o(i.OS_StatTaskInit)
    i.OS_TaskBlock                           0x080045f0   Section        0  os_core.o(i.OS_TaskBlock)
    i.OS_TaskChangePrio                      0x08004620   Section        0  os_task.o(i.OS_TaskChangePrio)
    i.OS_TaskDbgListAdd                      0x08004708   Section        0  os_task.o(i.OS_TaskDbgListAdd)
    i.OS_TaskDbgListRemove                   0x08004738   Section        0  os_task.o(i.OS_TaskDbgListRemove)
    i.OS_TaskInit                            0x0800477c   Section        0  os_task.o(i.OS_TaskInit)
    i.OS_TaskInitTCB                         0x0800479c   Section        0  os_task.o(i.OS_TaskInitTCB)
    i.OS_TaskReturn                          0x08004840   Section        0  os_task.o(i.OS_TaskReturn)
    i.OS_TickInit                            0x08004858   Section        0  os_tick.o(i.OS_TickInit)
    i.OS_TickListInsert                      0x08004874   Section        0  os_tick.o(i.OS_TickListInsert)
    i.OS_TickListInsertDly                   0x08004920   Section        0  os_tick.o(i.OS_TickListInsertDly)
    i.OS_TickListRemove                      0x080049ac   Section        0  os_tick.o(i.OS_TickListRemove)
    i.OS_TickListUpdate                      0x08004a04   Section        0  os_tick.o(i.OS_TickListUpdate)
    OS_TickListUpdate                        0x08004a05   Thumb Code   310  os_tick.o(i.OS_TickListUpdate)
    i.OS_TickUpdate                          0x08004b40   Section        0  os_tick.o(i.OS_TickUpdate)
    i.OS_TmrCondCreate                       0x08004ba4   Section        0  os_tmr.o(i.OS_TmrCondCreate)
    OS_TmrCondCreate                         0x08004ba5   Thumb Code    52  os_tmr.o(i.OS_TmrCondCreate)
    i.OS_TmrCondSignal                       0x08004be4   Section        0  os_tmr.o(i.OS_TmrCondSignal)
    OS_TmrCondSignal                         0x08004be5   Thumb Code    84  os_tmr.o(i.OS_TmrCondSignal)
    i.OS_TmrCondWait                         0x08004c44   Section        0  os_tmr.o(i.OS_TmrCondWait)
    OS_TmrCondWait                           0x08004c45   Thumb Code   282  os_tmr.o(i.OS_TmrCondWait)
    i.OS_TmrDbgListAdd                       0x08004d70   Section        0  os_tmr.o(i.OS_TmrDbgListAdd)
    i.OS_TmrInit                             0x08004d98   Section        0  os_tmr.o(i.OS_TmrInit)
    i.OS_TmrLink                             0x08004eb8   Section        0  os_tmr.o(i.OS_TmrLink)
    i.OS_TmrLock                             0x08004f70   Section        0  os_tmr.o(i.OS_TmrLock)
    OS_TmrLock                               0x08004f71   Thumb Code    20  os_tmr.o(i.OS_TmrLock)
    i.OS_TmrTask                             0x08004f88   Section        0  os_tmr.o(i.OS_TmrTask)
    i.OS_TmrUnlink                           0x0800509c   Section        0  os_tmr.o(i.OS_TmrUnlink)
    i.OS_TmrUnlock                           0x08005168   Section        0  os_tmr.o(i.OS_TmrUnlock)
    OS_TmrUnlock                             0x08005169   Thumb Code    14  os_tmr.o(i.OS_TmrUnlock)
    i.SVC_Handler                            0x0800517c   Section        0  wit.o(i.SVC_Handler)
    i.SysTick_Handler                        0x0800517e   Section        0  wit.o(i.SysTick_Handler)
    i.SystemInit                             0x0800518c   Section        0  system_stm32f4xx.o(i.SystemInit)
    i.UART4_IRQHandler                       0x080051e0   Section        0  wuart.o(i.UART4_IRQHandler)
    i.UART5_IRQHandler                       0x08005210   Section        0  wuart.o(i.UART5_IRQHandler)
    i.UART_DMAAbortOnError                   0x08005240   Section        0  stm32f4xx_hal_uart.o(i.UART_DMAAbortOnError)
    UART_DMAAbortOnError                     0x08005241   Thumb Code    20  stm32f4xx_hal_uart.o(i.UART_DMAAbortOnError)
    i.UART_DMAError                          0x08005254   Section        0  stm32f4xx_hal_uart.o(i.UART_DMAError)
    UART_DMAError                            0x08005255   Thumb Code    80  stm32f4xx_hal_uart.o(i.UART_DMAError)
    i.UART_DMAReceiveCplt                    0x080052a4   Section        0  stm32f4xx_hal_uart.o(i.UART_DMAReceiveCplt)
    UART_DMAReceiveCplt                      0x080052a5   Thumb Code    70  stm32f4xx_hal_uart.o(i.UART_DMAReceiveCplt)
    i.UART_DMARxHalfCplt                     0x080052ea   Section        0  stm32f4xx_hal_uart.o(i.UART_DMARxHalfCplt)
    UART_DMARxHalfCplt                       0x080052eb   Thumb Code    14  stm32f4xx_hal_uart.o(i.UART_DMARxHalfCplt)
    i.UART_DMARxOnlyAbortCallback            0x080052f8   Section        0  stm32f4xx_hal_uart.o(i.UART_DMARxOnlyAbortCallback)
    UART_DMARxOnlyAbortCallback              0x080052f9   Thumb Code    24  stm32f4xx_hal_uart.o(i.UART_DMARxOnlyAbortCallback)
    i.UART_DMATransmitCplt                   0x08005310   Section        0  stm32f4xx_hal_uart.o(i.UART_DMATransmitCplt)
    UART_DMATransmitCplt                     0x08005311   Thumb Code    54  stm32f4xx_hal_uart.o(i.UART_DMATransmitCplt)
    i.UART_DMATxHalfCplt                     0x08005346   Section        0  stm32f4xx_hal_uart.o(i.UART_DMATxHalfCplt)
    UART_DMATxHalfCplt                       0x08005347   Thumb Code    14  stm32f4xx_hal_uart.o(i.UART_DMATxHalfCplt)
    i.UART_EndRxTransfer                     0x08005354   Section        0  stm32f4xx_hal_uart.o(i.UART_EndRxTransfer)
    UART_EndRxTransfer                       0x08005355   Thumb Code    32  stm32f4xx_hal_uart.o(i.UART_EndRxTransfer)
    i.UART_EndTransmit_IT                    0x08005374   Section        0  stm32f4xx_hal_uart.o(i.UART_EndTransmit_IT)
    UART_EndTransmit_IT                      0x08005375   Thumb Code    32  stm32f4xx_hal_uart.o(i.UART_EndTransmit_IT)
    i.UART_EndTxTransfer                     0x08005394   Section        0  stm32f4xx_hal_uart.o(i.UART_EndTxTransfer)
    UART_EndTxTransfer                       0x08005395   Thumb Code    20  stm32f4xx_hal_uart.o(i.UART_EndTxTransfer)
    i.UART_Receive_IT                        0x080053a8   Section        0  stm32f4xx_hal_uart.o(i.UART_Receive_IT)
    UART_Receive_IT                          0x080053a9   Thumb Code   166  stm32f4xx_hal_uart.o(i.UART_Receive_IT)
    i.UART_SetConfig                         0x08005450   Section        0  stm32f4xx_hal_uart.o(i.UART_SetConfig)
    UART_SetConfig                           0x08005451   Thumb Code   864  stm32f4xx_hal_uart.o(i.UART_SetConfig)
    i.UART_Transmit_IT                       0x080057b8   Section        0  stm32f4xx_hal_uart.o(i.UART_Transmit_IT)
    UART_Transmit_IT                         0x080057b9   Thumb Code   104  stm32f4xx_hal_uart.o(i.UART_Transmit_IT)
    i.USART1_IRQHandler                      0x08005820   Section        0  wuart.o(i.USART1_IRQHandler)
    i.USART2_IRQHandler                      0x08005850   Section        0  wuart.o(i.USART2_IRQHandler)
    i.USART3_IRQHandler                      0x08005880   Section        0  wuart.o(i.USART3_IRQHandler)
    i.USART6_IRQHandler                      0x080058b0   Section        0  wuart.o(i.USART6_IRQHandler)
    i.UsageFault_Handler                     0x080058e0   Section        0  wit.o(i.UsageFault_Handler)
    i.__NVIC_GetPriorityGrouping             0x080058e4   Section        0  stm32f4xx_hal_cortex.o(i.__NVIC_GetPriorityGrouping)
    __NVIC_GetPriorityGrouping               0x080058e5   Thumb Code    10  stm32f4xx_hal_cortex.o(i.__NVIC_GetPriorityGrouping)
    i.__NVIC_SetPriority                     0x080058f4   Section        0  stm32f4xx_hal_cortex.o(i.__NVIC_SetPriority)
    __NVIC_SetPriority                       0x080058f5   Thumb Code    32  stm32f4xx_hal_cortex.o(i.__NVIC_SetPriority)
    i.__ecvround                             0x0800591c   Section        0  wsprintf.o(i.__ecvround)
    __ecvround                               0x0800591d   Thumb Code    72  wsprintf.o(i.__ecvround)
    i.cfltcvt                                0x08005964   Section        0  wsprintf.o(i.cfltcvt)
    cfltcvt                                  0x08005965   Thumb Code   500  wsprintf.o(i.cfltcvt)
    i.cropzeros                              0x08005b58   Section        0  wsprintf.o(i.cropzeros)
    cropzeros                                0x08005b59   Thumb Code    92  wsprintf.o(i.cropzeros)
    i.eaddr                                  0x08005bb4   Section        0  wsprintf.o(i.eaddr)
    eaddr                                    0x08005bb5   Thumb Code   176  wsprintf.o(i.eaddr)
    i.ecvtbuf                                0x08005c6c   Section        0  wsprintf.o(i.ecvtbuf)
    ecvtbuf                                  0x08005c6d   Thumb Code   306  wsprintf.o(i.ecvtbuf)
    i.fcvtbuf                                0x08005dac   Section        0  wsprintf.o(i.fcvtbuf)
    fcvtbuf                                  0x08005dad   Thumb Code   310  wsprintf.o(i.fcvtbuf)
    i.flt                                    0x08005ef8   Section        0  wsprintf.o(i.flt)
    flt                                      0x08005ef9   Thumb Code   298  wsprintf.o(i.flt)
    i.forcdecpt                              0x08006022   Section        0  wsprintf.o(i.forcdecpt)
    forcdecpt                                0x08006023   Thumb Code    84  wsprintf.o(i.forcdecpt)
    i.ftoa                                   0x08006078   Section        0  wsprintf.o(i.ftoa)
    ftoa                                     0x08006079   Thumb Code   308  wsprintf.o(i.ftoa)
    i.ftoaE                                  0x080061c8   Section        0  wsprintf.o(i.ftoaE)
    ftoaE                                    0x080061c9   Thumb Code   436  wsprintf.o(i.ftoaE)
    i.iaddr                                  0x0800639c   Section        0  wsprintf.o(i.iaddr)
    iaddr                                    0x0800639d   Thumb Code   286  wsprintf.o(i.iaddr)
    i.main                                   0x080064c0   Section        0  main.o(i.main)
    i.number                                 0x08006548   Section        0  wsprintf.o(i.number)
    number                                   0x08006549   Thumb Code   340  wsprintf.o(i.number)
    i.skip_atoi                              0x080066a4   Section        0  wsprintf.o(i.skip_atoi)
    skip_atoi                                0x080066a5   Thumb Code    44  wsprintf.o(i.skip_atoi)
    i.wDma_Init                              0x080066d0   Section        0  wdma.o(i.wDma_Init)
    i.wGpio_Init                             0x080068a4   Section        0  wgpio.o(i.wGpio_Init)
    i.wGpio_putInit                          0x08006bf4   Section        0  wgpio.o(i.wGpio_putInit)
    i.wGpio_putWrite                         0x08006ca0   Section        0  wgpio.o(i.wGpio_putWrite)
    i.wLed_IdInit                            0x08006cf8   Section        0  wled.o(i.wLed_IdInit)
    i.wLed_SetIdStatus                       0x08006dac   Section        0  wled.o(i.wLed_SetIdStatus)
    i.wLed_TmrOff                            0x08006df4   Section        0  wled.o(i.wLed_TmrOff)
    wLed_TmrOff                              0x08006df5   Thumb Code   232  wled.o(i.wLed_TmrOff)
    i.wLed_TmrOn                             0x08006ee0   Section        0  wled.o(i.wLed_TmrOn)
    wLed_TmrOn                               0x08006ee1   Thumb Code   142  wled.o(i.wLed_TmrOn)
    i.wSerial_Init                           0x08006f74   Section        0  wserial.o(i.wSerial_Init)
    i.wSerial_Printf                         0x0800700c   Section        0  wserial.o(i.wSerial_Printf)
    i.wSerial_Receive                        0x08007060   Section        0  wserial.o(i.wSerial_Receive)
    i.wSerial_RxIdleIRQHandler               0x080070e8   Section        0  wserial.o(i.wSerial_RxIdleIRQHandler)
    i.wSerial_Transmit                       0x0800712c   Section        0  wserial.o(i.wSerial_Transmit)
    i.wSerial_TxIRQHandler                   0x08007184   Section        0  wserial.o(i.wSerial_TxIRQHandler)
    i.wStr_Atoi                              0x080071c0   Section        0  wstr.o(i.wStr_Atoi)
    i.wStr_Chr                               0x08007242   Section        0  wstr.o(i.wStr_Chr)
    i.wStr_Cmp                               0x08007260   Section        0  wstr.o(i.wStr_Cmp)
    i.wStr_Itoa                              0x0800728e   Section        0  wstr.o(i.wStr_Itoa)
    i.wStr_Len                               0x080072e2   Section        0  wstr.o(i.wStr_Len)
    i.wStr_MeSet                             0x080072f8   Section        0  wstr.o(i.wStr_MeSet)
    i.wStr_MemCpy                            0x08007318   Section        0  wstr.o(i.wStr_MemCpy)
    i.wStr_nContain                          0x0800734c   Section        0  wstr.o(i.wStr_nContain)
    i.wStr_nLen                              0x08007378   Section        0  wstr.o(i.wStr_nLen)
    i.wSys_ClockConfig                       0x08007394   Section        0  wsys.o(i.wSys_ClockConfig)
    i.wSys_GetClkFreq                        0x080074b0   Section        0  wsys.o(i.wSys_GetClkFreq)
    i.wSys_TmrReset                          0x080074b8   Section        0  wsys.o(i.wSys_TmrReset)
    wSys_TmrReset                            0x080074b9   Thumb Code    18  wsys.o(i.wSys_TmrReset)
    i.wUart_AbortReceive                     0x080074cc   Section        0  wuart.o(i.wUart_AbortReceive)
    i.wUart_CSSEnable                        0x08007504   Section        0  wuart.o(i.wUart_CSSEnable)
    wUart_CSSEnable                          0x08007505   Thumb Code    66  wuart.o(i.wUart_CSSEnable)
    i.wUart_DMAInit                          0x0800754c   Section        0  wuart.o(i.wUart_DMAInit)
    i.wUart_DMAReceive                       0x08007714   Section        0  wuart.o(i.wUart_DMAReceive)
    i.wUart_DMATransmit                      0x08007768   Section        0  wuart.o(i.wUart_DMATransmit)
    i.wUart_Init                             0x08007784   Section        0  wuart.o(i.wUart_Init)
    i.wUart_List                             0x08007ab8   Section        0  wuart.o(i.wUart_List)
    wUart_List                               0x08007ab9   Thumb Code    58  wuart.o(i.wUart_List)
    i.wUart_SetCallback                      0x08007af8   Section        0  wuart.o(i.wUart_SetCallback)
    i.wvsprintf                              0x08007b04   Section        0  wsprintf.o(i.wvsprintf)
    x$fpl$dadd                               0x08007f10   Section      336  daddsub_clz.o(x$fpl$dadd)
    _dadd1                                   0x08007f21   Thumb Code     0  daddsub_clz.o(x$fpl$dadd)
    x$fpl$dcmpinf                            0x08008060   Section       24  dcmpi.o(x$fpl$dcmpinf)
    x$fpl$deqf                               0x08008078   Section      120  deqf.o(x$fpl$deqf)
    x$fpl$dfix                               0x080080f0   Section       94  dfix.o(x$fpl$dfix)
    x$fpl$dflt                               0x0800814e   Section       46  dflt_clz.o(x$fpl$dflt)
    x$fpl$dleqf                              0x0800817c   Section      120  dleqf.o(x$fpl$dleqf)
    x$fpl$dmul                               0x080081f4   Section      340  dmul.o(x$fpl$dmul)
    x$fpl$dnaninf                            0x08008348   Section      156  dnaninf.o(x$fpl$dnaninf)
    x$fpl$dretinf                            0x080083e4   Section       12  dretinf.o(x$fpl$dretinf)
    x$fpl$drleqf                             0x080083f0   Section      108  drleqf.o(x$fpl$drleqf)
    x$fpl$drsb                               0x0800845c   Section       22  daddsub_clz.o(x$fpl$drsb)
    x$fpl$dsub                               0x08008474   Section      468  daddsub_clz.o(x$fpl$dsub)
    _dsub1                                   0x08008485   Thumb Code     0  daddsub_clz.o(x$fpl$dsub)
    .constdata                               0x08008648   Section      100  os_cfg_app.o(.constdata)
    x$fpl$usenofp                            0x08008648   Section        0  usenofp.o(x$fpl$usenofp)
    .constdata                               0x080086ac   Section      360  os_dbg.o(.constdata)
    .constdata                               0x08008814   Section       24  system_stm32f4xx.o(.constdata)
    .constdata                               0x0800882c   Section        8  stm32f4xx_hal_dma.o(.constdata)
    flagBitshiftOffset                       0x0800882c   Data           8  stm32f4xx_hal_dma.o(.constdata)
    .conststring                             0x08008834   Section       77  wsprintf.o(.conststring)
    .data                                    0x20000000   Section        4  wuart.o(.data)
    .data                                    0x20000004   Section       26  wsprintf.o(.data)
    lower_digits                             0x20000004   Data           4  wsprintf.o(.data)
    upper_digits                             0x20000008   Data           4  wsprintf.o(.data)
    INFINITY                                 0x2000000c   Data           9  wsprintf.o(.data)
    INFINITY                                 0x20000015   Data           9  wsprintf.o(.data)
    .data                                    0x20000020   Section        4  cpu_core.o(.data)
    .data                                    0x20000024   Section      164  os_var.o(.data)
    .data                                    0x200000c8   Section        8  os_cpu_c.o(.data)
    .data                                    0x200000d0   Section        4  system_stm32f4xx.o(.data)
    .data                                    0x200000d4   Section        9  stm32f4xx_hal.o(.data)
    .bss                                     0x200000e0   Section     1692  main.o(.bss)
    Main_TaskTCB                             0x200000e0   Data         168  main.o(.bss)
    Main_TaskStk                             0x20000188   Data        1024  main.o(.bss)
    .bss                                     0x2000077c   Section      216  wled.o(.bss)
    led                                      0x2000077c   Data         216  wled.o(.bss)
    .bss                                     0x20000854   Section     1080  wserial.o(.bss)
    Serial                                   0x20000854   Data        1080  wserial.o(.bss)
    .bss                                     0x20000c8c   Section       64  wgpio.o(.bss)
    wExti                                    0x20000c8c   Data          64  wgpio.o(.bss)
    .bss                                     0x20000ccc   Section       48  wsys.o(.bss)
    .bss                                     0x20000cfc   Section       28  wuart.o(.bss)
    .bss                                     0x20000d18   Section       64  wdma.o(.bss)
    .bss                                     0x20000d58   Section     4608  os_cfg_app.o(.bss)
    .bss                                     0x20001f58   Section     1368  os_var.o(.bss)
    .bss                                     0x200024b0   Section       96  libspace.o(.bss)
    HEAP                                     0x20002510   Section     2048  startup_stm32f405xx.o(HEAP)
    Heap_Mem                                 0x20002510   Data        2048  startup_stm32f405xx.o(HEAP)
    STACK                                    0x20002d10   Section     4096  startup_stm32f405xx.o(STACK)
    Stack_Mem                                0x20002d10   Data        4096  startup_stm32f405xx.o(STACK)
    __initial_sp                             0x20003d10   Data           0  startup_stm32f405xx.o(STACK)

    Global Symbols

    Symbol Name                              Value     Ov Type        Size  Object(Section)

    BuildAttributes$$THM_ISAv4$E$P$D$K$B$S$7EM$PE$A:L22UL41UL21$X:L11$S22US41US21$IEEE1$IW$USESV6$~STKCKD$USESV7$~SHL$OTIME$ROPI$EBA8$UX$STANDARDLIB$REQ8$PRES8$EABIv2 0x00000000   Number         0  anon$$obj.o ABSOLUTE
    __ARM_use_no_argv                        0x00000000   Number         0  main.o ABSOLUTE
    __ARM_exceptions_init                     - Undefined Weak Reference
    __alloca_initialize                       - Undefined Weak Reference
    __arm_preinit_                            - Undefined Weak Reference
    __cpp_initialize__aeabi_                  - Undefined Weak Reference
    __cxa_finalize                            - Undefined Weak Reference
    __rt_locale                               - Undefined Weak Reference
    __sigvec_lookup                           - Undefined Weak Reference
    __user_heap_extent                        - Undefined Weak Reference
    _atexit_init                              - Undefined Weak Reference
    _call_atexit_fns                          - Undefined Weak Reference
    _clock_init                               - Undefined Weak Reference
    _fp_trap_init                             - Undefined Weak Reference
    _fp_trap_shutdown                         - Undefined Weak Reference
    _get_lc_collate                           - Undefined Weak Reference
    _get_lc_ctype                             - Undefined Weak Reference
    _get_lc_monetary                          - Undefined Weak Reference
    _get_lc_numeric                           - Undefined Weak Reference
    _get_lc_time                              - Undefined Weak Reference
    _getenv_init                              - Undefined Weak Reference
    _handle_redirection                       - Undefined Weak Reference
    _initio                                   - Undefined Weak Reference
    _mutex_acquire                            - Undefined Weak Reference
    _mutex_free                               - Undefined Weak Reference
    _mutex_release                            - Undefined Weak Reference
    _rand_init                                - Undefined Weak Reference
    _signal_finish                            - Undefined Weak Reference
    _signal_init                              - Undefined Weak Reference
    _terminateio                              - Undefined Weak Reference
    __Vectors_Size                           0x00000188   Number         0  startup_stm32f405xx.o ABSOLUTE
    __Vectors                                0x08000000   Data           4  startup_stm32f405xx.o(RESET)
    __Vectors_End                            0x08000188   Data           0  startup_stm32f405xx.o(RESET)
    __main                                   0x08000189   Thumb Code     8  __main.o(!!!main)
    __scatterload                            0x08000191   Thumb Code     0  __scatter.o(!!!scatter)
    __scatterload_rt2                        0x08000191   Thumb Code    44  __scatter.o(!!!scatter)
    __scatterload_rt2_thumb_only             0x08000191   Thumb Code     0  __scatter.o(!!!scatter)
    __scatterload_null                       0x0800019f   Thumb Code     0  __scatter.o(!!!scatter)
    __scatterload_copy                       0x080001c5   Thumb Code    26  __scatter_copy.o(!!handler_copy)
    __scatterload_zeroinit                   0x080001e1   Thumb Code    28  __scatter_zi.o(!!handler_zi)
    __rt_lib_init                            0x080001fd   Thumb Code     0  libinit.o(.ARM.Collect$$libinit$$00000000)
    __rt_lib_init_fp_1                       0x080001ff   Thumb Code     0  libinit2.o(.ARM.Collect$$libinit$$00000002)
    __rt_lib_init_heap_2                     0x080001ff   Thumb Code     0  libinit2.o(.ARM.Collect$$libinit$$00000005)
    __rt_lib_init_preinit_1                  0x080001ff   Thumb Code     0  libinit2.o(.ARM.Collect$$libinit$$00000004)
    __rt_lib_init_alloca_1                   0x08000207   Thumb Code     0  libinit2.o(.ARM.Collect$$libinit$$0000002E)
    __rt_lib_init_argv_1                     0x08000207   Thumb Code     0  libinit2.o(.ARM.Collect$$libinit$$0000002C)
    __rt_lib_init_atexit_1                   0x08000207   Thumb Code     0  libinit2.o(.ARM.Collect$$libinit$$0000001B)
    __rt_lib_init_clock_1                    0x08000207   Thumb Code     0  libinit2.o(.ARM.Collect$$libinit$$00000021)
    __rt_lib_init_cpp_1                      0x08000207   Thumb Code     0  libinit2.o(.ARM.Collect$$libinit$$00000032)
    __rt_lib_init_exceptions_1               0x08000207   Thumb Code     0  libinit2.o(.ARM.Collect$$libinit$$00000030)
    __rt_lib_init_fp_trap_1                  0x08000207   Thumb Code     0  libinit2.o(.ARM.Collect$$libinit$$0000001F)
    __rt_lib_init_getenv_1                   0x08000207   Thumb Code     0  libinit2.o(.ARM.Collect$$libinit$$00000023)
    __rt_lib_init_heap_1                     0x08000207   Thumb Code     0  libinit2.o(.ARM.Collect$$libinit$$0000000A)
    __rt_lib_init_lc_collate_1               0x08000207   Thumb Code     0  libinit2.o(.ARM.Collect$$libinit$$00000011)
    __rt_lib_init_lc_ctype_1                 0x08000207   Thumb Code     0  libinit2.o(.ARM.Collect$$libinit$$00000013)
    __rt_lib_init_lc_monetary_1              0x08000207   Thumb Code     0  libinit2.o(.ARM.Collect$$libinit$$00000015)
    __rt_lib_init_lc_numeric_1               0x08000207   Thumb Code     0  libinit2.o(.ARM.Collect$$libinit$$00000017)
    __rt_lib_init_lc_time_1                  0x08000207   Thumb Code     0  libinit2.o(.ARM.Collect$$libinit$$00000019)
    __rt_lib_init_rand_1                     0x08000207   Thumb Code     0  libinit2.o(.ARM.Collect$$libinit$$0000000E)
    __rt_lib_init_return                     0x08000207   Thumb Code     0  libinit2.o(.ARM.Collect$$libinit$$00000033)
    __rt_lib_init_signal_1                   0x08000207   Thumb Code     0  libinit2.o(.ARM.Collect$$libinit$$0000001D)
    __rt_lib_init_stdio_1                    0x08000207   Thumb Code     0  libinit2.o(.ARM.Collect$$libinit$$00000025)
    __rt_lib_init_user_alloc_1               0x08000207   Thumb Code     0  libinit2.o(.ARM.Collect$$libinit$$0000000C)
    __rt_lib_shutdown                        0x08000209   Thumb Code     0  libshutdown.o(.ARM.Collect$$libshutdown$$00000000)
    __rt_lib_shutdown_cpp_1                  0x0800020b   Thumb Code     0  libshutdown2.o(.ARM.Collect$$libshutdown$$00000002)
    __rt_lib_shutdown_fp_trap_1              0x0800020b   Thumb Code     0  libshutdown2.o(.ARM.Collect$$libshutdown$$00000007)
    __rt_lib_shutdown_heap_1                 0x0800020b   Thumb Code     0  libshutdown2.o(.ARM.Collect$$libshutdown$$0000000F)
    __rt_lib_shutdown_return                 0x0800020b   Thumb Code     0  libshutdown2.o(.ARM.Collect$$libshutdown$$00000010)
    __rt_lib_shutdown_signal_1               0x0800020b   Thumb Code     0  libshutdown2.o(.ARM.Collect$$libshutdown$$0000000A)
    __rt_lib_shutdown_stdio_1                0x0800020b   Thumb Code     0  libshutdown2.o(.ARM.Collect$$libshutdown$$00000004)
    __rt_lib_shutdown_user_alloc_1           0x0800020b   Thumb Code     0  libshutdown2.o(.ARM.Collect$$libshutdown$$0000000C)
    __rt_entry                               0x0800020d   Thumb Code     0  __rtentry.o(.ARM.Collect$$rtentry$$00000000)
    __rt_entry_presh_1                       0x0800020d   Thumb Code     0  __rtentry2.o(.ARM.Collect$$rtentry$$00000002)
    __rt_entry_sh                            0x0800020d   Thumb Code     0  __rtentry4.o(.ARM.Collect$$rtentry$$00000004)
    __rt_entry_li                            0x08000213   Thumb Code     0  __rtentry2.o(.ARM.Collect$$rtentry$$0000000A)
    __rt_entry_postsh_1                      0x08000213   Thumb Code     0  __rtentry2.o(.ARM.Collect$$rtentry$$00000009)
    __rt_entry_main                          0x08000217   Thumb Code     0  __rtentry2.o(.ARM.Collect$$rtentry$$0000000D)
    __rt_entry_postli_1                      0x08000217   Thumb Code     0  __rtentry2.o(.ARM.Collect$$rtentry$$0000000C)
    __rt_exit                                0x0800021f   Thumb Code     0  rtexit.o(.ARM.Collect$$rtexit$$00000000)
    __rt_exit_ls                             0x08000221   Thumb Code     0  rtexit2.o(.ARM.Collect$$rtexit$$00000003)
    __rt_exit_prels_1                        0x08000221   Thumb Code     0  rtexit2.o(.ARM.Collect$$rtexit$$00000002)
    __rt_exit_exit                           0x08000225   Thumb Code     0  rtexit2.o(.ARM.Collect$$rtexit$$00000004)
    CPU_IntDis                               0x0800022d   Thumb Code     0  cpu_a.o(.text)
    _maybe_terminate_alloc                   0x0800022d   Thumb Code     0  maybetermalloc1.o(.emb_text)
    CPU_IntEn                                0x08000231   Thumb Code     0  cpu_a.o(.text)
    CPU_SR_Save                              0x08000235   Thumb Code     0  cpu_a.o(.text)
    CPU_SR_Restore                           0x0800023d   Thumb Code     0  cpu_a.o(.text)
    CPU_WaitForInt                           0x08000243   Thumb Code     0  cpu_a.o(.text)
    CPU_WaitForExcept                        0x08000247   Thumb Code     0  cpu_a.o(.text)
    CPU_CntLeadZeros                         0x0800024b   Thumb Code     0  cpu_a.o(.text)
    CPU_CntTrailZeros                        0x08000251   Thumb Code     0  cpu_a.o(.text)
    CPU_RevBits                              0x0800025b   Thumb Code     0  cpu_a.o(.text)
    Reset_Handler                            0x08000261   Thumb Code     8  startup_stm32f405xx.o(.text)
    ADC_IRQHandler                           0x0800027b   Thumb Code     0  startup_stm32f405xx.o(.text)
    CAN1_RX0_IRQHandler                      0x0800027b   Thumb Code     0  startup_stm32f405xx.o(.text)
    CAN1_RX1_IRQHandler                      0x0800027b   Thumb Code     0  startup_stm32f405xx.o(.text)
    CAN1_SCE_IRQHandler                      0x0800027b   Thumb Code     0  startup_stm32f405xx.o(.text)
    CAN1_TX_IRQHandler                       0x0800027b   Thumb Code     0  startup_stm32f405xx.o(.text)
    CAN2_RX0_IRQHandler                      0x0800027b   Thumb Code     0  startup_stm32f405xx.o(.text)
    CAN2_RX1_IRQHandler                      0x0800027b   Thumb Code     0  startup_stm32f405xx.o(.text)
    CAN2_SCE_IRQHandler                      0x0800027b   Thumb Code     0  startup_stm32f405xx.o(.text)
    CAN2_TX_IRQHandler                       0x0800027b   Thumb Code     0  startup_stm32f405xx.o(.text)
    FLASH_IRQHandler                         0x0800027b   Thumb Code     0  startup_stm32f405xx.o(.text)
    FMC_IRQHandler                           0x0800027b   Thumb Code     0  startup_stm32f405xx.o(.text)
    FPU_IRQHandler                           0x0800027b   Thumb Code     0  startup_stm32f405xx.o(.text)
    HASH_RNG_IRQHandler                      0x0800027b   Thumb Code     0  startup_stm32f405xx.o(.text)
    I2C1_ER_IRQHandler                       0x0800027b   Thumb Code     0  startup_stm32f405xx.o(.text)
    I2C1_EV_IRQHandler                       0x0800027b   Thumb Code     0  startup_stm32f405xx.o(.text)
    I2C2_ER_IRQHandler                       0x0800027b   Thumb Code     0  startup_stm32f405xx.o(.text)
    I2C2_EV_IRQHandler                       0x0800027b   Thumb Code     0  startup_stm32f405xx.o(.text)
    I2C3_ER_IRQHandler                       0x0800027b   Thumb Code     0  startup_stm32f405xx.o(.text)
    I2C3_EV_IRQHandler                       0x0800027b   Thumb Code     0  startup_stm32f405xx.o(.text)
    OTG_FS_IRQHandler                        0x0800027b   Thumb Code     0  startup_stm32f405xx.o(.text)
    OTG_FS_WKUP_IRQHandler                   0x0800027b   Thumb Code     0  startup_stm32f405xx.o(.text)
    OTG_HS_EP1_IN_IRQHandler                 0x0800027b   Thumb Code     0  startup_stm32f405xx.o(.text)
    OTG_HS_EP1_OUT_IRQHandler                0x0800027b   Thumb Code     0  startup_stm32f405xx.o(.text)
    OTG_HS_IRQHandler                        0x0800027b   Thumb Code     0  startup_stm32f405xx.o(.text)
    OTG_HS_WKUP_IRQHandler                   0x0800027b   Thumb Code     0  startup_stm32f405xx.o(.text)
    PVD_IRQHandler                           0x0800027b   Thumb Code     0  startup_stm32f405xx.o(.text)
    RCC_IRQHandler                           0x0800027b   Thumb Code     0  startup_stm32f405xx.o(.text)
    RTC_Alarm_IRQHandler                     0x0800027b   Thumb Code     0  startup_stm32f405xx.o(.text)
    RTC_WKUP_IRQHandler                      0x0800027b   Thumb Code     0  startup_stm32f405xx.o(.text)
    SDIO_IRQHandler                          0x0800027b   Thumb Code     0  startup_stm32f405xx.o(.text)
    SPI1_IRQHandler                          0x0800027b   Thumb Code     0  startup_stm32f405xx.o(.text)
    SPI2_IRQHandler                          0x0800027b   Thumb Code     0  startup_stm32f405xx.o(.text)
    SPI3_IRQHandler                          0x0800027b   Thumb Code     0  startup_stm32f405xx.o(.text)
    TAMP_STAMP_IRQHandler                    0x0800027b   Thumb Code     0  startup_stm32f405xx.o(.text)
    TIM1_BRK_TIM9_IRQHandler                 0x0800027b   Thumb Code     0  startup_stm32f405xx.o(.text)
    TIM1_CC_IRQHandler                       0x0800027b   Thumb Code     0  startup_stm32f405xx.o(.text)
    TIM1_TRG_COM_TIM11_IRQHandler            0x0800027b   Thumb Code     0  startup_stm32f405xx.o(.text)
    TIM1_UP_TIM10_IRQHandler                 0x0800027b   Thumb Code     0  startup_stm32f405xx.o(.text)
    TIM2_IRQHandler                          0x0800027b   Thumb Code     0  startup_stm32f405xx.o(.text)
    TIM3_IRQHandler                          0x0800027b   Thumb Code     0  startup_stm32f405xx.o(.text)
    TIM4_IRQHandler                          0x0800027b   Thumb Code     0  startup_stm32f405xx.o(.text)
    TIM5_IRQHandler                          0x0800027b   Thumb Code     0  startup_stm32f405xx.o(.text)
    TIM6_DAC_IRQHandler                      0x0800027b   Thumb Code     0  startup_stm32f405xx.o(.text)
    TIM7_IRQHandler                          0x0800027b   Thumb Code     0  startup_stm32f405xx.o(.text)
    TIM8_BRK_TIM12_IRQHandler                0x0800027b   Thumb Code     0  startup_stm32f405xx.o(.text)
    TIM8_CC_IRQHandler                       0x0800027b   Thumb Code     0  startup_stm32f405xx.o(.text)
    TIM8_TRG_COM_TIM14_IRQHandler            0x0800027b   Thumb Code     0  startup_stm32f405xx.o(.text)
    TIM8_UP_TIM13_IRQHandler                 0x0800027b   Thumb Code     0  startup_stm32f405xx.o(.text)
    WWDG_IRQHandler                          0x0800027b   Thumb Code     0  startup_stm32f405xx.o(.text)
    __user_initial_stackheap                 0x0800027d   Thumb Code     0  startup_stm32f405xx.o(.text)
    malloc                                   0x080002a1   Thumb Code    94  h1_alloc.o(.text)
    free                                     0x080002ff   Thumb Code    78  h1_free.o(.text)
    __aeabi_uldivmod                         0x0800034d   Thumb Code     0  lludivv7m.o(.text)
    _ll_udiv                                 0x0800034d   Thumb Code   238  lludivv7m.o(.text)
    __aeabi_memclr4                          0x0800043b   Thumb Code     0  rt_memclr_w.o(.text)
    __aeabi_memclr8                          0x0800043b   Thumb Code     0  rt_memclr_w.o(.text)
    __rt_memclr_w                            0x0800043b   Thumb Code    78  rt_memclr_w.o(.text)
    _memset_w                                0x0800043f   Thumb Code     0  rt_memclr_w.o(.text)
    __use_two_region_memory                  0x08000489   Thumb Code     2  heapauxi.o(.text)
    __rt_heap_escrow                         0x0800048b   Thumb Code     2  heapauxi.o(.text)
    __rt_heap_expand                         0x0800048d   Thumb Code     2  heapauxi.o(.text)
    __rt_heap_descriptor                     0x08000491   Thumb Code     8  rt_heap_descriptor_intlibspace.o(.text)
    __use_no_heap                            0x08000499   Thumb Code     2  hguard.o(.text)
    __heap$guard                             0x0800049b   Thumb Code     2  hguard.o(.text)
    _terminate_user_alloc                    0x0800049d   Thumb Code     2  init_alloc.o(.text)
    _init_user_alloc                         0x0800049f   Thumb Code     2  init_alloc.o(.text)
    __Heap_Full                              0x080004a1   Thumb Code    34  init_alloc.o(.text)
    __Heap_Broken                            0x080004c3   Thumb Code     6  init_alloc.o(.text)
    _init_alloc                              0x080004c9   Thumb Code    94  init_alloc.o(.text)
    __Heap_Initialize                        0x08000527   Thumb Code    10  h1_init.o(.text)
    __Heap_DescSize                          0x08000531   Thumb Code     4  h1_init.o(.text)
    __user_libspace                          0x08000535   Thumb Code     8  libspace.o(.text)
    __user_perproc_libspace                  0x08000535   Thumb Code     0  libspace.o(.text)
    __user_perthread_libspace                0x08000535   Thumb Code     0  libspace.o(.text)
    __Heap_ProvideMemory                     0x0800053d   Thumb Code    52  h1_extend.o(.text)
    __rt_SIGRTMEM                            0x08000571   Thumb Code    14  defsig_rtmem_outer.o(.text)
    __I$use$semihosting                      0x0800057f   Thumb Code     0  use_no_semi.o(.text)
    __use_no_semihosting_swi                 0x0800057f   Thumb Code     2  use_no_semi.o(.text)
    __semihosting_library_function           0x08000581   Thumb Code     0  indicate_semi.o(.text)
    __user_setup_stackheap                   0x08000581   Thumb Code    74  sys_stackheap_outer.o(.text)
    exit                                     0x080005cb   Thumb Code    18  exit.o(.text)
    __sig_exit                               0x080005dd   Thumb Code    10  defsig_exit.o(.text)
    __rt_SIGRTMEM_inner                      0x080005e9   Thumb Code    22  defsig_rtmem_inner.o(.text)
    _sys_exit                                0x08000639   Thumb Code     8  sys_exit.o(.text)
    __default_signal_display                 0x08000645   Thumb Code    50  defsig_general.o(.text)
    _ttywrch                                 0x08000677   Thumb Code    14  sys_wrch.o(.text)
    OSStartHighRdy                           0x08000685   Thumb Code     0  os_cpu_a.o(CODE)
    OSCtxSw                                  0x080006ff   Thumb Code     0  os_cpu_a.o(CODE)
    OSIntCtxSw                               0x080006ff   Thumb Code     0  os_cpu_a.o(CODE)
    PendSV_Handler                           0x08000709   Thumb Code     0  os_cpu_a.o(CODE)
    BusFault_Handler                         0x0800077d   Thumb Code     4  wit.o(i.BusFault_Handler)
    CPU_Init                                 0x08000781   Thumb Code     8  cpu_core.o(i.CPU_Init)
    CPU_TS_TmrFreqSet                        0x0800079d   Thumb Code     6  cpu_core.o(i.CPU_TS_TmrFreqSet)
    CPU_TS_TmrInit                           0x080007a9   Thumb Code    44  os_bsp.o(i.CPU_TS_TmrInit)
    CPU_TS_TmrRd                             0x080007dd   Thumb Code     6  os_bsp.o(i.CPU_TS_TmrRd)
    DMA1_Stream0_IRQHandler                  0x080007e9   Thumb Code    34  wdma.o(i.DMA1_Stream0_IRQHandler)
    DMA1_Stream1_IRQHandler                  0x08000811   Thumb Code    34  wdma.o(i.DMA1_Stream1_IRQHandler)
    DMA1_Stream2_IRQHandler                  0x08000839   Thumb Code    34  wdma.o(i.DMA1_Stream2_IRQHandler)
    DMA1_Stream3_IRQHandler                  0x08000861   Thumb Code    34  wdma.o(i.DMA1_Stream3_IRQHandler)
    DMA1_Stream4_IRQHandler                  0x08000889   Thumb Code    34  wdma.o(i.DMA1_Stream4_IRQHandler)
    DMA1_Stream5_IRQHandler                  0x080008b1   Thumb Code    34  wdma.o(i.DMA1_Stream5_IRQHandler)
    DMA1_Stream6_IRQHandler                  0x080008d9   Thumb Code    34  wdma.o(i.DMA1_Stream6_IRQHandler)
    DMA1_Stream7_IRQHandler                  0x08000901   Thumb Code    34  wdma.o(i.DMA1_Stream7_IRQHandler)
    DMA2_Stream0_IRQHandler                  0x08000929   Thumb Code    34  wdma.o(i.DMA2_Stream0_IRQHandler)
    DMA2_Stream1_IRQHandler                  0x08000951   Thumb Code    34  wdma.o(i.DMA2_Stream1_IRQHandler)
    DMA2_Stream2_IRQHandler                  0x08000979   Thumb Code    34  wdma.o(i.DMA2_Stream2_IRQHandler)
    DMA2_Stream3_IRQHandler                  0x080009a1   Thumb Code    34  wdma.o(i.DMA2_Stream3_IRQHandler)
    DMA2_Stream4_IRQHandler                  0x080009c9   Thumb Code    34  wdma.o(i.DMA2_Stream4_IRQHandler)
    DMA2_Stream5_IRQHandler                  0x080009f1   Thumb Code    34  wdma.o(i.DMA2_Stream5_IRQHandler)
    DMA2_Stream6_IRQHandler                  0x08000a19   Thumb Code    34  wdma.o(i.DMA2_Stream6_IRQHandler)
    DMA2_Stream7_IRQHandler                  0x08000a41   Thumb Code    34  wdma.o(i.DMA2_Stream7_IRQHandler)
    DebugMon_Handler                         0x08000b73   Thumb Code     2  wit.o(i.DebugMon_Handler)
    EXTI0_IRQHandler                         0x08000b75   Thumb Code    24  wgpio.o(i.EXTI0_IRQHandler)
    EXTI15_10_IRQHandler                     0x08000b8d   Thumb Code    66  wgpio.o(i.EXTI15_10_IRQHandler)
    EXTI1_IRQHandler                         0x08000bcf   Thumb Code    24  wgpio.o(i.EXTI1_IRQHandler)
    EXTI2_IRQHandler                         0x08000be7   Thumb Code    24  wgpio.o(i.EXTI2_IRQHandler)
    EXTI3_IRQHandler                         0x08000bff   Thumb Code    24  wgpio.o(i.EXTI3_IRQHandler)
    EXTI4_IRQHandler                         0x08000c17   Thumb Code    24  wgpio.o(i.EXTI4_IRQHandler)
    EXTI9_5_IRQHandler                       0x08000c2f   Thumb Code    52  wgpio.o(i.EXTI9_5_IRQHandler)
    HAL_DMA_Abort_IT                         0x08000c63   Thumb Code    40  stm32f4xx_hal_dma.o(i.HAL_DMA_Abort_IT)
    HAL_DMA_IRQHandler                       0x08000c8d   Thumb Code   570  stm32f4xx_hal_dma.o(i.HAL_DMA_IRQHandler)
    HAL_DMA_Init                             0x08000ecd   Thumb Code   232  stm32f4xx_hal_dma.o(i.HAL_DMA_Init)
    HAL_DMA_Start_IT                         0x08000fb9   Thumb Code   158  stm32f4xx_hal_dma.o(i.HAL_DMA_Start_IT)
    HAL_GPIO_EXTI_Callback                   0x08001059   Thumb Code   184  wgpio.o(i.HAL_GPIO_EXTI_Callback)
    HAL_GPIO_EXTI_IRQHandler                 0x08001115   Thumb Code    24  stm32f4xx_hal_gpio.o(i.HAL_GPIO_EXTI_IRQHandler)
    HAL_GPIO_Init                            0x08001131   Thumb Code   466  stm32f4xx_hal_gpio.o(i.HAL_GPIO_Init)
    HAL_GPIO_TogglePin                       0x08001331   Thumb Code    18  stm32f4xx_hal_gpio.o(i.HAL_GPIO_TogglePin)
    HAL_GPIO_WritePin                        0x08001343   Thumb Code    12  stm32f4xx_hal_gpio.o(i.HAL_GPIO_WritePin)
    HAL_GetREVID                             0x08001351   Thumb Code     8  stm32f4xx_hal.o(i.HAL_GetREVID)
    HAL_GetTick                              0x0800135d   Thumb Code     6  stm32f4xx_hal.o(i.HAL_GetTick)
    HAL_IncTick                              0x08001369   Thumb Code    16  stm32f4xx_hal.o(i.HAL_IncTick)
    HAL_Init                                 0x08001381   Thumb Code    54  stm32f4xx_hal.o(i.HAL_Init)
    HAL_InitTick                             0x080013bd   Thumb Code    64  stm32f4xx_hal.o(i.HAL_InitTick)
    HAL_MspInit                              0x08001409   Thumb Code   182  wsys.o(i.HAL_MspInit)
    HAL_NVIC_ClearPendingIRQ                 0x080014d5   Thumb Code    30  stm32f4xx_hal_cortex.o(i.HAL_NVIC_ClearPendingIRQ)
    HAL_NVIC_EnableIRQ                       0x080014f9   Thumb Code    32  stm32f4xx_hal_cortex.o(i.HAL_NVIC_EnableIRQ)
    HAL_NVIC_SetPriority                     0x08001519   Thumb Code   124  stm32f4xx_hal_cortex.o(i.HAL_NVIC_SetPriority)
    HAL_NVIC_SetPriorityGrouping             0x08001595   Thumb Code    32  stm32f4xx_hal_cortex.o(i.HAL_NVIC_SetPriorityGrouping)
    HAL_NVIC_SystemReset                     0x080015bd   Thumb Code    60  stm32f4xx_hal_cortex.o(i.HAL_NVIC_SystemReset)
    HAL_RCC_ClockConfig                      0x08001601   Thumb Code   366  stm32f4xx_hal_rcc.o(i.HAL_RCC_ClockConfig)
    HAL_RCC_DeInit                           0x08001781   Thumb Code   356  stm32f4xx_hal_rcc_ex.o(i.HAL_RCC_DeInit)
    HAL_RCC_EnableCSS                        0x080018f9   Thumb Code     8  stm32f4xx_hal_rcc.o(i.HAL_RCC_EnableCSS)
    HAL_RCC_GetHCLKFreq                      0x08001905   Thumb Code     6  stm32f4xx_hal_rcc.o(i.HAL_RCC_GetHCLKFreq)
    HAL_RCC_GetPCLK1Freq                     0x08001911   Thumb Code    22  stm32f4xx_hal_rcc.o(i.HAL_RCC_GetPCLK1Freq)
    HAL_RCC_GetPCLK2Freq                     0x08001931   Thumb Code    22  stm32f4xx_hal_rcc.o(i.HAL_RCC_GetPCLK2Freq)
    HAL_RCC_GetSysClockFreq                  0x08001951   Thumb Code   162  stm32f4xx_hal_rcc.o(i.HAL_RCC_GetSysClockFreq)
    HAL_RCC_OscConfig                        0x08001a01   Thumb Code  1086  stm32f4xx_hal_rcc.o(i.HAL_RCC_OscConfig)
    HAL_SYSTICK_CLKSourceConfig              0x08001e49   Thumb Code    40  stm32f4xx_hal_cortex.o(i.HAL_SYSTICK_CLKSourceConfig)
    HAL_SYSTICK_Config                       0x08001e71   Thumb Code    52  stm32f4xx_hal_cortex.o(i.HAL_SYSTICK_Config)
    HAL_UART_AbortReceiveCpltCallback        0x08001ea5   Thumb Code     2  stm32f4xx_hal_uart.o(i.HAL_UART_AbortReceiveCpltCallback)
    HAL_UART_AbortReceive_IT                 0x08001ea9   Thumb Code   116  stm32f4xx_hal_uart.o(i.HAL_UART_AbortReceive_IT)
    HAL_UART_ErrorCallback                   0x08001f21   Thumb Code     2  stm32f4xx_hal_uart.o(i.HAL_UART_ErrorCallback)
    HAL_UART_IRQHandler                      0x08001f25   Thumb Code   328  stm32f4xx_hal_uart.o(i.HAL_UART_IRQHandler)
    HAL_UART_Init                            0x08002071   Thumb Code   114  stm32f4xx_hal_uart.o(i.HAL_UART_Init)
    HAL_UART_MspInit                         0x080020e3   Thumb Code     2  stm32f4xx_hal_uart.o(i.HAL_UART_MspInit)
    HAL_UART_Receive_DMA                     0x080020e5   Thumb Code   182  stm32f4xx_hal_uart.o(i.HAL_UART_Receive_DMA)
    HAL_UART_RxCpltCallback                  0x080021a9   Thumb Code     2  stm32f4xx_hal_uart.o(i.HAL_UART_RxCpltCallback)
    HAL_UART_RxCpltCallback_Idle             0x080021ad   Thumb Code    72  wuart.o(i.HAL_UART_RxCpltCallback_Idle)
    HAL_UART_RxHalfCpltCallback              0x080021f9   Thumb Code     2  stm32f4xx_hal_uart.o(i.HAL_UART_RxHalfCpltCallback)
    HAL_UART_Transmit_DMA                    0x080021fd   Thumb Code   142  stm32f4xx_hal_uart.o(i.HAL_UART_Transmit_DMA)
    HAL_UART_TxCpltCallback                  0x08002299   Thumb Code    56  wuart.o(i.HAL_UART_TxCpltCallback)
    HAL_UART_TxHalfCpltCallback              0x080022d9   Thumb Code     2  stm32f4xx_hal_uart.o(i.HAL_UART_TxHalfCpltCallback)
    HardFault_Handler                        0x080022db   Thumb Code     4  wit.o(i.HardFault_Handler)
    MemManage_Handler                        0x08002371   Thumb Code     4  wit.o(i.MemManage_Handler)
    NMI_Handler                              0x08002375   Thumb Code     2  wit.o(i.NMI_Handler)
    OSCfg_Init                               0x08002377   Thumb Code     2  os_cfg_app.o(i.OSCfg_Init)
    OSInit                                   0x08002379   Thumb Code   214  os_core.o(i.OSInit)
    OSInitHook                               0x0800249d   Thumb Code    34  os_cpu_c.o(i.OSInitHook)
    OSIntEnter                               0x080024d1   Thumb Code    34  os_core.o(i.OSIntEnter)
    OSIntExit                                0x080024fd   Thumb Code   180  os_core.o(i.OSIntExit)
    OSMutexCreate                            0x080025d1   Thumb Code   122  os_mutex.o(i.OSMutexCreate)
    OSMutexPend                              0x08002655   Thumb Code   430  os_mutex.o(i.OSMutexPend)
    OSMutexPost                              0x0800280d   Thumb Code   326  os_mutex.o(i.OSMutexPost)
    OSSched                                  0x0800295d   Thumb Code   126  os_core.o(i.OSSched)
    OSSemCreate                              0x080029f9   Thumb Code   120  os_sem.o(i.OSSemCreate)
    OSSemPend                                0x08002a79   Thumb Code   330  os_sem.o(i.OSSemPend)
    OSSemPost                                0x08002bcd   Thumb Code   186  os_sem.o(i.OSSemPost)
    OSSemSet                                 0x08002c87   Thumb Code    76  os_sem.o(i.OSSemSet)
    OSStart                                  0x08002cd5   Thumb Code   120  os_core.o(i.OSStart)
    OSStatReset                              0x08002d6d   Thumb Code   244  os_stat.o(i.OSStatReset)
    OSStatTaskCPUUsageInit                   0x08002e85   Thumb Code   216  os_stat.o(i.OSStatTaskCPUUsageInit)
    OSStatTaskHook                           0x08002f79   Thumb Code     2  os_cpu_c.o(i.OSStatTaskHook)
    OSTaskCreate                             0x08002f7d   Thumb Code   312  os_task.o(i.OSTaskCreate)
    OSTaskCreateHook                         0x080030c1   Thumb Code     2  os_cpu_c.o(i.OSTaskCreateHook)
    OSTaskDel                                0x080030c5   Thumb Code   368  os_task.o(i.OSTaskDel)
    OSTaskDelHook                            0x08003241   Thumb Code     2  os_cpu_c.o(i.OSTaskDelHook)
    OSTaskResume                             0x08003243   Thumb Code   256  os_task.o(i.OSTaskResume)
    OSTaskReturnHook                         0x08003343   Thumb Code     2  os_cpu_c.o(i.OSTaskReturnHook)
    OSTaskStkChk                             0x08003345   Thumb Code   174  os_task.o(i.OSTaskStkChk)
    OSTaskStkInit                            0x080033f9   Thumb Code   204  os_cpu_c.o(i.OSTaskStkInit)
    OSTaskSuspend                            0x080034c9   Thumb Code   352  os_task.o(i.OSTaskSuspend)
    OSTaskSwHook                             0x08003639   Thumb Code    70  os_cpu_c.o(i.OSTaskSwHook)
    OSTimeDly                                0x08003689   Thumb Code   140  os_time.o(i.OSTimeDly)
    OSTimeTick                               0x0800371d   Thumb Code    26  os_time.o(i.OSTimeTick)
    OSTimeTickHook                           0x0800373d   Thumb Code     2  os_cpu_c.o(i.OSTimeTickHook)
    OSTmrCreate                              0x08003741   Thumb Code   156  os_tmr.o(i.OSTmrCreate)
    OSTmrSet                                 0x080037ed   Thumb Code    56  os_tmr.o(i.OSTmrSet)
    OSTmrStart                               0x08003829   Thumb Code   198  os_tmr.o(i.OSTmrStart)
    OS_CPU_SysTickHandler                    0x08003901   Thumb Code    46  os_cpu_c.o(i.OS_CPU_SysTickHandler)
    OS_CPU_SysTickInit                       0x08003931   Thumb Code    50  os_cpu_c.o(i.OS_CPU_SysTickInit)
    OS_Dbg_Init                              0x08003969   Thumb Code   284  os_dbg.o(i.OS_Dbg_Init)
    OS_IdleTask                              0x08003b91   Thumb Code    52  os_core.o(i.OS_IdleTask)
    OS_IdleTaskInit                          0x08003bcd   Thumb Code    66  os_core.o(i.OS_IdleTaskInit)
    OS_MemInit                               0x08003c3d   Thumb Code    14  os_mem.o(i.OS_MemInit)
    OS_MsgPoolInit                           0x08003c55   Thumb Code    80  os_msg.o(i.OS_MsgPoolInit)
    OS_MutexDbgListAdd                       0x08003cb1   Thumb Code    38  os_mutex.o(i.OS_MutexDbgListAdd)
    OS_MutexGrpAdd                           0x08003ce1   Thumb Code     8  os_mutex.o(i.OS_MutexGrpAdd)
    OS_MutexGrpPostAll                       0x08003ce9   Thumb Code    94  os_mutex.o(i.OS_MutexGrpPostAll)
    OS_MutexGrpPrioFindHighest               0x08003d47   Thumb Code    42  os_mutex.o(i.OS_MutexGrpPrioFindHighest)
    OS_MutexGrpRemove                        0x08003d71   Thumb Code    28  os_mutex.o(i.OS_MutexGrpRemove)
    OS_Pend                                  0x08003d8d   Thumb Code    64  os_core.o(i.OS_Pend)
    OS_PendDbgNameAdd                        0x08003dcd   Thumb Code    64  os_core.o(i.OS_PendDbgNameAdd)
    OS_PendDbgNameRemove                     0x08003e25   Thumb Code    32  os_core.o(i.OS_PendDbgNameRemove)
    OS_PendListChangePrio                    0x08003e49   Thumb Code    34  os_core.o(i.OS_PendListChangePrio)
    OS_PendListInit                          0x08003e6b   Thumb Code    10  os_core.o(i.OS_PendListInit)
    OS_PendListInsertPrio                    0x08003e75   Thumb Code   102  os_core.o(i.OS_PendListInsertPrio)
    OS_PendListRemove                        0x08003edb   Thumb Code    78  os_core.o(i.OS_PendListRemove)
    OS_Post                                  0x08003f29   Thumb Code   172  os_core.o(i.OS_Post)
    OS_PrioGetHighest                        0x08003fd5   Thumb Code    34  os_prio.o(i.OS_PrioGetHighest)
    OS_PrioInit                              0x08003ffd   Thumb Code    20  os_prio.o(i.OS_PrioInit)
    OS_PrioInsert                            0x08004015   Thumb Code    48  os_prio.o(i.OS_PrioInsert)
    OS_PrioRemove                            0x08004049   Thumb Code    48  os_prio.o(i.OS_PrioRemove)
    OS_RdyListInit                           0x0800407d   Thumb Code    30  os_core.o(i.OS_RdyListInit)
    OS_RdyListInsert                         0x080040a1   Thumb Code    40  os_core.o(i.OS_RdyListInsert)
    OS_RdyListInsertHead                     0x080040cd   Thumb Code    58  os_core.o(i.OS_RdyListInsertHead)
    OS_RdyListInsertTail                     0x0800410d   Thumb Code    56  os_core.o(i.OS_RdyListInsertTail)
    OS_RdyListRemove                         0x08004149   Thumb Code    86  os_core.o(i.OS_RdyListRemove)
    OS_SemDbgListAdd                         0x080041a5   Thumb Code    38  os_sem.o(i.OS_SemDbgListAdd)
    OS_StatTask                              0x080041d5   Thumb Code   750  os_stat.o(i.OS_StatTask)
    OS_StatTaskInit                          0x08004515   Thumb Code   144  os_stat.o(i.OS_StatTaskInit)
    OS_TaskBlock                             0x080045f1   Thumb Code    44  os_core.o(i.OS_TaskBlock)
    OS_TaskChangePrio                        0x08004621   Thumb Code   228  os_task.o(i.OS_TaskChangePrio)
    OS_TaskDbgListAdd                        0x08004709   Thumb Code    42  os_task.o(i.OS_TaskDbgListAdd)
    OS_TaskDbgListRemove                     0x08004739   Thumb Code    64  os_task.o(i.OS_TaskDbgListRemove)
    OS_TaskInit                              0x0800477d   Thumb Code    18  os_task.o(i.OS_TaskInit)
    OS_TaskInitTCB                           0x0800479d   Thumb Code   152  os_task.o(i.OS_TaskInitTCB)
    OS_TaskReturn                            0x08004841   Thumb Code    20  os_task.o(i.OS_TaskReturn)
    OS_TickInit                              0x08004859   Thumb Code    18  os_tick.o(i.OS_TickInit)
    OS_TickListInsert                        0x08004875   Thumb Code   162  os_tick.o(i.OS_TickListInsert)
    OS_TickListInsertDly                     0x08004921   Thumb Code   134  os_tick.o(i.OS_TickListInsertDly)
    OS_TickListRemove                        0x080049ad   Thumb Code    82  os_tick.o(i.OS_TickListRemove)
    OS_TickUpdate                            0x08004b41   Thumb Code    86  os_tick.o(i.OS_TickUpdate)
    OS_TmrDbgListAdd                         0x08004d71   Thumb Code    34  os_tmr.o(i.OS_TmrDbgListAdd)
    OS_TmrInit                               0x08004d99   Thumb Code   178  os_tmr.o(i.OS_TmrInit)
    OS_TmrLink                               0x08004eb9   Thumb Code   172  os_tmr.o(i.OS_TmrLink)
    OS_TmrTask                               0x08004f89   Thumb Code   254  os_tmr.o(i.OS_TmrTask)
    OS_TmrUnlink                             0x0800509d   Thumb Code   190  os_tmr.o(i.OS_TmrUnlink)
    SVC_Handler                              0x0800517d   Thumb Code     2  wit.o(i.SVC_Handler)
    SysTick_Handler                          0x0800517f   Thumb Code    12  wit.o(i.SysTick_Handler)
    SystemInit                               0x0800518d   Thumb Code    68  system_stm32f4xx.o(i.SystemInit)
    UART4_IRQHandler                         0x080051e1   Thumb Code    42  wuart.o(i.UART4_IRQHandler)
    UART5_IRQHandler                         0x08005211   Thumb Code    42  wuart.o(i.UART5_IRQHandler)
    USART1_IRQHandler                        0x08005821   Thumb Code    42  wuart.o(i.USART1_IRQHandler)
    USART2_IRQHandler                        0x08005851   Thumb Code    42  wuart.o(i.USART2_IRQHandler)
    USART3_IRQHandler                        0x08005881   Thumb Code    42  wuart.o(i.USART3_IRQHandler)
    USART6_IRQHandler                        0x080058b1   Thumb Code    42  wuart.o(i.USART6_IRQHandler)
    UsageFault_Handler                       0x080058e1   Thumb Code     4  wit.o(i.UsageFault_Handler)
    main                                     0x080064c1   Thumb Code   104  main.o(i.main)
    wDma_Init                                0x080066d1   Thumb Code   446  wdma.o(i.wDma_Init)
    wGpio_Init                               0x080068a5   Thumb Code   806  wgpio.o(i.wGpio_Init)
    wGpio_putInit                            0x08006bf5   Thumb Code   136  wgpio.o(i.wGpio_putInit)
    wGpio_putWrite                           0x08006ca1   Thumb Code    88  wgpio.o(i.wGpio_putWrite)
    wLed_IdInit                              0x08006cf9   Thumb Code   142  wled.o(i.wLed_IdInit)
    wLed_SetIdStatus                         0x08006dad   Thumb Code    66  wled.o(i.wLed_SetIdStatus)
    wSerial_Init                             0x08006f75   Thumb Code   108  wserial.o(i.wSerial_Init)
    wSerial_Printf                           0x0800700d   Thumb Code    82  wserial.o(i.wSerial_Printf)
    wSerial_Receive                          0x08007061   Thumb Code   132  wserial.o(i.wSerial_Receive)
    wSerial_RxIdleIRQHandler                 0x080070e9   Thumb Code    62  wserial.o(i.wSerial_RxIdleIRQHandler)
    wSerial_Transmit                         0x0800712d   Thumb Code    84  wserial.o(i.wSerial_Transmit)
    wSerial_TxIRQHandler                     0x08007185   Thumb Code    56  wserial.o(i.wSerial_TxIRQHandler)
    wStr_Atoi                                0x080071c1   Thumb Code   130  wstr.o(i.wStr_Atoi)
    wStr_Chr                                 0x08007243   Thumb Code    30  wstr.o(i.wStr_Chr)
    wStr_Cmp                                 0x08007261   Thumb Code    46  wstr.o(i.wStr_Cmp)
    wStr_Itoa                                0x0800728f   Thumb Code    84  wstr.o(i.wStr_Itoa)
    wStr_Len                                 0x080072e3   Thumb Code    22  wstr.o(i.wStr_Len)
    wStr_MeSet                               0x080072f9   Thumb Code    32  wstr.o(i.wStr_MeSet)
    wStr_MemCpy                              0x08007319   Thumb Code    52  wstr.o(i.wStr_MemCpy)
    wStr_nContain                            0x0800734d   Thumb Code    44  wstr.o(i.wStr_nContain)
    wStr_nLen                                0x08007379   Thumb Code    28  wstr.o(i.wStr_nLen)
    wSys_ClockConfig                         0x08007395   Thumb Code   270  wsys.o(i.wSys_ClockConfig)
    wSys_GetClkFreq                          0x080074b1   Thumb Code     8  wsys.o(i.wSys_GetClkFreq)
    wUart_AbortReceive                       0x080074cd   Thumb Code    52  wuart.o(i.wUart_AbortReceive)
    wUart_DMAInit                            0x0800754d   Thumb Code   432  wuart.o(i.wUart_DMAInit)
    wUart_DMAReceive                         0x08007715   Thumb Code    80  wuart.o(i.wUart_DMAReceive)
    wUart_DMATransmit                        0x08007769   Thumb Code    28  wuart.o(i.wUart_DMATransmit)
    wUart_Init                               0x08007785   Thumb Code   790  wuart.o(i.wUart_Init)
    wUart_SetCallback                        0x08007af9   Thumb Code    12  wuart.o(i.wUart_SetCallback)
    wvsprintf                                0x08007b05   Thumb Code  1026  wsprintf.o(i.wvsprintf)
    __aeabi_dadd                             0x08007f11   Thumb Code     0  daddsub_clz.o(x$fpl$dadd)
    _dadd                                    0x08007f11   Thumb Code   332  daddsub_clz.o(x$fpl$dadd)
    __fpl_dcmp_Inf                           0x08008061   Thumb Code    24  dcmpi.o(x$fpl$dcmpinf)
    __aeabi_cdcmpeq                          0x08008079   Thumb Code     0  deqf.o(x$fpl$deqf)
    _dcmpeq                                  0x08008079   Thumb Code   120  deqf.o(x$fpl$deqf)
    __aeabi_d2iz                             0x080080f1   Thumb Code     0  dfix.o(x$fpl$dfix)
    _dfix                                    0x080080f1   Thumb Code    94  dfix.o(x$fpl$dfix)
    __aeabi_i2d                              0x0800814f   Thumb Code     0  dflt_clz.o(x$fpl$dflt)
    _dflt                                    0x0800814f   Thumb Code    46  dflt_clz.o(x$fpl$dflt)
    __aeabi_cdcmple                          0x0800817d   Thumb Code     0  dleqf.o(x$fpl$dleqf)
    _dcmple                                  0x0800817d   Thumb Code   120  dleqf.o(x$fpl$dleqf)
    __fpl_dcmple_InfNaN                      0x080081df   Thumb Code     0  dleqf.o(x$fpl$dleqf)
    __aeabi_dmul                             0x080081f5   Thumb Code     0  dmul.o(x$fpl$dmul)
    _dmul                                    0x080081f5   Thumb Code   332  dmul.o(x$fpl$dmul)
    __fpl_dnaninf                            0x08008349   Thumb Code   156  dnaninf.o(x$fpl$dnaninf)
    __fpl_dretinf                            0x080083e5   Thumb Code    12  dretinf.o(x$fpl$dretinf)
    __aeabi_cdrcmple                         0x080083f1   Thumb Code     0  drleqf.o(x$fpl$drleqf)
    _drcmple                                 0x080083f1   Thumb Code   108  drleqf.o(x$fpl$drleqf)
    __aeabi_drsub                            0x0800845d   Thumb Code     0  daddsub_clz.o(x$fpl$drsb)
    _drsb                                    0x0800845d   Thumb Code    22  daddsub_clz.o(x$fpl$drsb)
    __aeabi_dsub                             0x08008475   Thumb Code     0  daddsub_clz.o(x$fpl$dsub)
    _dsub                                    0x08008475   Thumb Code   464  daddsub_clz.o(x$fpl$dsub)
    OSCfg_IdleTaskStkBasePtr                 0x08008648   Data           4  os_cfg_app.o(.constdata)
    __I$use$fp                               0x08008648   Number         0  usenofp.o(x$fpl$usenofp)
    OSCfg_IdleTaskStkLimit                   0x0800864c   Data           4  os_cfg_app.o(.constdata)
    OSCfg_IdleTaskStkSize                    0x08008650   Data           4  os_cfg_app.o(.constdata)
    OSCfg_IdleTaskStkSizeRAM                 0x08008654   Data           4  os_cfg_app.o(.constdata)
    OSCfg_ISRStkBasePtr                      0x08008658   Data           4  os_cfg_app.o(.constdata)
    OSCfg_ISRStkSize                         0x0800865c   Data           4  os_cfg_app.o(.constdata)
    OSCfg_ISRStkSizeRAM                      0x08008660   Data           4  os_cfg_app.o(.constdata)
    OSCfg_MsgPoolSize                        0x08008664   Data           2  os_cfg_app.o(.constdata)
    OSCfg_MsgPoolSizeRAM                     0x08008668   Data           4  os_cfg_app.o(.constdata)
    OSCfg_MsgPoolBasePtr                     0x0800866c   Data           4  os_cfg_app.o(.constdata)
    OSCfg_StatTaskPrio                       0x08008670   Data           1  os_cfg_app.o(.constdata)
    OSCfg_StatTaskRate_Hz                    0x08008674   Data           4  os_cfg_app.o(.constdata)
    OSCfg_StatTaskStkBasePtr                 0x08008678   Data           4  os_cfg_app.o(.constdata)
    OSCfg_StatTaskStkLimit                   0x0800867c   Data           4  os_cfg_app.o(.constdata)
    OSCfg_StatTaskStkSize                    0x08008680   Data           4  os_cfg_app.o(.constdata)
    OSCfg_StatTaskStkSizeRAM                 0x08008684   Data           4  os_cfg_app.o(.constdata)
    OSCfg_StkSizeMin                         0x08008688   Data           4  os_cfg_app.o(.constdata)
    OSCfg_TickRate_Hz                        0x0800868c   Data           4  os_cfg_app.o(.constdata)
    OSCfg_TmrTaskPrio                        0x08008690   Data           1  os_cfg_app.o(.constdata)
    OSCfg_TmrTaskRate_Hz                     0x08008694   Data           4  os_cfg_app.o(.constdata)
    OSCfg_TmrTaskStkBasePtr                  0x08008698   Data           4  os_cfg_app.o(.constdata)
    OSCfg_TmrTaskStkLimit                    0x0800869c   Data           4  os_cfg_app.o(.constdata)
    OSCfg_TmrTaskStkSize                     0x080086a0   Data           4  os_cfg_app.o(.constdata)
    OSCfg_TmrTaskStkSizeRAM                  0x080086a4   Data           4  os_cfg_app.o(.constdata)
    OSCfg_DataSizeRAM                        0x080086a8   Data           4  os_cfg_app.o(.constdata)
    OSDbg_DbgEn                              0x080086ac   Data           1  os_dbg.o(.constdata)
    OSDbg_ArgChkEn                           0x080086ad   Data           1  os_dbg.o(.constdata)
    OSDbg_AppHooksEn                         0x080086ae   Data           1  os_dbg.o(.constdata)
    OSDbg_EndiannessTest                     0x080086b0   Data           4  os_dbg.o(.constdata)
    OSDbg_CalledFromISRChkEn                 0x080086b4   Data           1  os_dbg.o(.constdata)
    OSDbg_FlagEn                             0x080086b5   Data           1  os_dbg.o(.constdata)
    OSDbg_FlagGrp                            0x080086b8   Data          40  os_dbg.o(.constdata)
    OSDbg_FlagDelEn                          0x080086e0   Data           1  os_dbg.o(.constdata)
    OSDbg_FlagModeClrEn                      0x080086e1   Data           1  os_dbg.o(.constdata)
    OSDbg_FlagPendAbortEn                    0x080086e2   Data           1  os_dbg.o(.constdata)
    OSDbg_FlagGrpSize                        0x080086e4   Data           2  os_dbg.o(.constdata)
    OSDbg_FlagWidth                          0x080086e6   Data           2  os_dbg.o(.constdata)
    OSDbg_Mem                                0x080086e8   Data          32  os_dbg.o(.constdata)
    OSDbg_MemEn                              0x08008708   Data           1  os_dbg.o(.constdata)
    OSDbg_MemSize                            0x0800870a   Data           2  os_dbg.o(.constdata)
    OSDbg_MsgEn                              0x0800870c   Data           1  os_dbg.o(.constdata)
    OSDbg_MsgSize                            0x0800870e   Data           2  os_dbg.o(.constdata)
    OSDbg_MsgPoolSize                        0x08008710   Data           2  os_dbg.o(.constdata)
    OSDbg_MsgQSize                           0x08008712   Data           2  os_dbg.o(.constdata)
    OSDbg_Mutex                              0x08008714   Data          48  os_dbg.o(.constdata)
    OSDbg_MutexEn                            0x08008744   Data           1  os_dbg.o(.constdata)
    OSDbg_MutexDelEn                         0x08008745   Data           1  os_dbg.o(.constdata)
    OSDbg_MutexPendAbortEn                   0x08008746   Data           1  os_dbg.o(.constdata)
    OSDbg_MutexSize                          0x08008748   Data           2  os_dbg.o(.constdata)
    OSDbg_ObjTypeChkEn                       0x0800874a   Data           1  os_dbg.o(.constdata)
    OSDbg_PendListSize                       0x0800874c   Data           2  os_dbg.o(.constdata)
    OSDbg_PendObjSize                        0x0800874e   Data           2  os_dbg.o(.constdata)
    OSDbg_PrioMax                            0x08008750   Data           2  os_dbg.o(.constdata)
    OSDbg_PrioTblSize                        0x08008752   Data           2  os_dbg.o(.constdata)
    OSDbg_PtrSize                            0x08008754   Data           2  os_dbg.o(.constdata)
    OSDbg_Q                                  0x08008758   Data          48  os_dbg.o(.constdata)
    OSDbg_QEn                                0x08008788   Data           1  os_dbg.o(.constdata)
    OSDbg_QDelEn                             0x08008789   Data           1  os_dbg.o(.constdata)
    OSDbg_QFlushEn                           0x0800878a   Data           1  os_dbg.o(.constdata)
    OSDbg_QPendAbortEn                       0x0800878b   Data           1  os_dbg.o(.constdata)
    OSDbg_QSize                              0x0800878c   Data           2  os_dbg.o(.constdata)
    OSDbg_SchedRoundRobinEn                  0x0800878e   Data           1  os_dbg.o(.constdata)
    OSDbg_Sem                                0x08008790   Data          40  os_dbg.o(.constdata)
    OSDbg_SemEn                              0x080087b8   Data           1  os_dbg.o(.constdata)
    OSDbg_SemDelEn                           0x080087b9   Data           1  os_dbg.o(.constdata)
    OSDbg_SemPendAbortEn                     0x080087ba   Data           1  os_dbg.o(.constdata)
    OSDbg_SemSetEn                           0x080087bb   Data           1  os_dbg.o(.constdata)
    OSDbg_SemSize                            0x080087bc   Data           2  os_dbg.o(.constdata)
    OSDbg_RdyList                            0x080087be   Data           2  os_dbg.o(.constdata)
    OSDbg_RdyListSize                        0x080087c0   Data           4  os_dbg.o(.constdata)
    OSDbg_StkWidth                           0x080087c4   Data           1  os_dbg.o(.constdata)
    OSDbg_StatTaskEn                         0x080087c5   Data           1  os_dbg.o(.constdata)
    OSDbg_StatTaskStkChkEn                   0x080087c6   Data           1  os_dbg.o(.constdata)
    OSDbg_TaskChangePrioEn                   0x080087c7   Data           1  os_dbg.o(.constdata)
    OSDbg_TaskDelEn                          0x080087c8   Data           1  os_dbg.o(.constdata)
    OSDbg_TaskQEn                            0x080087c9   Data           1  os_dbg.o(.constdata)
    OSDbg_TaskQPendAbortEn                   0x080087ca   Data           1  os_dbg.o(.constdata)
    OSDbg_TaskProfileEn                      0x080087cb   Data           1  os_dbg.o(.constdata)
    OSDbg_TaskRegTblSize                     0x080087cc   Data           2  os_dbg.o(.constdata)
    OSDbg_TaskSemPendAbortEn                 0x080087ce   Data           1  os_dbg.o(.constdata)
    OSDbg_TaskSuspendEn                      0x080087cf   Data           1  os_dbg.o(.constdata)
    OSDbg_TCBSize                            0x080087d0   Data           2  os_dbg.o(.constdata)
    OSDbg_TickListSize                       0x080087d2   Data           2  os_dbg.o(.constdata)
    OSDbg_TimeDlyHMSMEn                      0x080087d4   Data           1  os_dbg.o(.constdata)
    OSDbg_TimeDlyResumeEn                    0x080087d5   Data           1  os_dbg.o(.constdata)
    OSDbg_TLS_TblSize                        0x080087d6   Data           2  os_dbg.o(.constdata)
    OSDbg_Tmr                                0x080087d8   Data          48  os_dbg.o(.constdata)
    OSDbg_TmrEn                              0x08008808   Data           1  os_dbg.o(.constdata)
    OSDbg_TmrDelEn                           0x08008809   Data           1  os_dbg.o(.constdata)
    OSDbg_TmrSize                            0x0800880a   Data           2  os_dbg.o(.constdata)
    OSDbg_VersionNbr                         0x0800880c   Data           2  os_dbg.o(.constdata)
    OSDbg_DataSize                           0x08008810   Data           4  os_dbg.o(.constdata)
    AHBPrescTable                            0x08008814   Data          16  system_stm32f4xx.o(.constdata)
    APBPrescTable                            0x08008824   Data           8  system_stm32f4xx.o(.constdata)
    Region$$Table$$Base                      0x08008884   Number         0  anon$$obj.o(Region$$Table)
    Region$$Table$$Limit                     0x080088a4   Number         0  anon$$obj.o(Region$$Table)
    wUart_ListPtr                            0x20000000   Data           4  wuart.o(.data)
    CPU_TS_TmrFreq_Hz                        0x20000020   Data           4  cpu_core.o(.data)
    OSIdleTaskCtr                            0x20000024   Data           4  os_var.o(.data)
    OSIntNestingCtr                          0x20000028   Data           1  os_var.o(.data)
    OSRunning                                0x20000029   Data           1  os_var.o(.data)
    OSInitialized                            0x2000002a   Data           1  os_var.o(.data)
    OSISRStkFree                             0x2000002c   Data           4  os_var.o(.data)
    OSISRStkUsed                             0x20000030   Data           4  os_var.o(.data)
    OSFlagDbgListPtr                         0x20000034   Data           4  os_var.o(.data)
    OSFlagQty                                0x20000038   Data           2  os_var.o(.data)
    OSMemDbgListPtr                          0x2000003c   Data           4  os_var.o(.data)
    OSMemQty                                 0x20000040   Data           2  os_var.o(.data)
    OSMutexDbgListPtr                        0x20000044   Data           4  os_var.o(.data)
    OSMutexQty                               0x20000048   Data           2  os_var.o(.data)
    OSPrioCur                                0x2000004a   Data           1  os_var.o(.data)
    OSPrioHighRdy                            0x2000004b   Data           1  os_var.o(.data)
    OSPrioTbl                                0x2000004c   Data           8  os_var.o(.data)
    OSQDbgListPtr                            0x20000054   Data           4  os_var.o(.data)
    OSQQty                                   0x20000058   Data           2  os_var.o(.data)
    OSSchedLockNestingCtr                    0x2000005a   Data           1  os_var.o(.data)
    OSSemDbgListPtr                          0x2000005c   Data           4  os_var.o(.data)
    OSSemQty                                 0x20000060   Data           2  os_var.o(.data)
    OSStatResetFlag                          0x20000062   Data           1  os_var.o(.data)
    OSStatTaskCPUUsage                       0x20000064   Data           2  os_var.o(.data)
    OSStatTaskCPUUsageMax                    0x20000066   Data           2  os_var.o(.data)
    OSStatTaskCtr                            0x20000068   Data           4  os_var.o(.data)
    OSStatTaskCtrMax                         0x2000006c   Data           4  os_var.o(.data)
    OSStatTaskCtrRun                         0x20000070   Data           4  os_var.o(.data)
    OSStatTaskRdy                            0x20000074   Data           1  os_var.o(.data)
    OSStatTaskTime                           0x20000078   Data           4  os_var.o(.data)
    OSStatTaskTimeMax                        0x2000007c   Data           4  os_var.o(.data)
    OSTaskCtxSwCtr                           0x20000080   Data           4  os_var.o(.data)
    OSTaskDbgListPtr                         0x20000084   Data           4  os_var.o(.data)
    OSTaskQty                                0x20000088   Data           2  os_var.o(.data)
    OSTaskRegNextAvailID                     0x2000008a   Data           1  os_var.o(.data)
    OSTickCtr                                0x2000008c   Data           4  os_var.o(.data)
    OSTickList                               0x20000090   Data           8  os_var.o(.data)
    OSTickTime                               0x20000098   Data           4  os_var.o(.data)
    OSTickTimeMax                            0x2000009c   Data           4  os_var.o(.data)
    OSTmrDbgListPtr                          0x200000a0   Data           4  os_var.o(.data)
    OSTmrListEntries                         0x200000a4   Data           2  os_var.o(.data)
    OSTmrListPtr                             0x200000a8   Data           4  os_var.o(.data)
    OSTmrQty                                 0x200000ac   Data           2  os_var.o(.data)
    OSTmrTaskTime                            0x200000b0   Data           4  os_var.o(.data)
    OSTmrTaskTimeMax                         0x200000b4   Data           4  os_var.o(.data)
    OSTmrTaskTickBase                        0x200000b8   Data           4  os_var.o(.data)
    OSTmrToTicksMult                         0x200000bc   Data           4  os_var.o(.data)
    OSTCBCurPtr                              0x200000c0   Data           4  os_var.o(.data)
    OSTCBHighRdyPtr                          0x200000c4   Data           4  os_var.o(.data)
    OS_CPU_ExceptStkBase                     0x200000c8   Data           4  os_cpu_c.o(.data)
    OS_KA_BASEPRI_Boundary                   0x200000cc   Data           4  os_cpu_c.o(.data)
    SystemCoreClock                          0x200000d0   Data           4  system_stm32f4xx.o(.data)
    uwTick                                   0x200000d4   Data           4  stm32f4xx_hal.o(.data)
    uwTickPrio                               0x200000d8   Data           4  stm32f4xx_hal.o(.data)
    uwTickFreq                               0x200000dc   Data           1  stm32f4xx_hal.o(.data)
    data                                     0x20000588   Data         500  main.o(.bss)
    Tmr_Sys                                  0x20000ccc   Data          48  wsys.o(.bss)
    Int_huart                                0x20000cfc   Data          28  wuart.o(.bss)
    Int_hdma1                                0x20000d18   Data          32  wdma.o(.bss)
    Int_hdma2                                0x20000d38   Data          32  wdma.o(.bss)
    OSCfg_IdleTaskStk                        0x20000d58   Data        1024  os_cfg_app.o(.bss)
    OSCfg_ISRStk                             0x20001158   Data        1024  os_cfg_app.o(.bss)
    OSCfg_MsgPool                            0x20001558   Data         512  os_cfg_app.o(.bss)
    OSCfg_StatTaskStk                        0x20001758   Data        1024  os_cfg_app.o(.bss)
    OSCfg_TmrTaskStk                         0x20001b58   Data        1024  os_cfg_app.o(.bss)
    OSIdleTaskTCB                            0x20001f58   Data         168  os_var.o(.bss)
    OSMsgPool                                0x20002000   Data          12  os_var.o(.bss)
    OSRdyList                                0x2000200c   Data         768  os_var.o(.bss)
    OSStatTaskTCB                            0x2000230c   Data         168  os_var.o(.bss)
    OSTmrCond                                0x200023b4   Data          36  os_var.o(.bss)
    OSTmrMutex                               0x200023d8   Data          48  os_var.o(.bss)
    OSTmrTaskTCB                             0x20002408   Data         168  os_var.o(.bss)
    __libspace_start                         0x200024b0   Data          96  libspace.o(.bss)
    __temporary_stack_top$libspace           0x20002510   Data           0  libspace.o(.bss)



==============================================================================

Memory Map of the image

  Image Entry point : 0x08000189

  Load Region LR_IROM1 (Base: 0x08000000, Size: 0x00008984, Max: 0x00100000, ABSOLUTE)

    Execution Region ER_IROM1 (Exec base: 0x08000000, Load base: 0x08000000, Size: 0x000088a4, Max: 0x00100000, ABSOLUTE)

    Exec Addr    Load Addr    Size         Type   Attr      Idx    E Section Name        Object

    0x08000000   0x08000000   0x00000188   Data   RO         2401    RESET               startup_stm32f405xx.o
    0x08000188   0x08000188   0x00000008   Code   RO         3619  * !!!main             c_w.l(__main.o)
    0x08000190   0x08000190   0x00000034   Code   RO         3867    !!!scatter          c_w.l(__scatter.o)
    0x080001c4   0x080001c4   0x0000001a   Code   RO         3869    !!handler_copy      c_w.l(__scatter_copy.o)
    0x080001de   0x080001de   0x00000002   PAD
    0x080001e0   0x080001e0   0x0000001c   Code   RO         3871    !!handler_zi        c_w.l(__scatter_zi.o)
    0x080001fc   0x080001fc   0x00000002   Code   RO         3806    .ARM.Collect$$libinit$$00000000  c_w.l(libinit.o)
    0x080001fe   0x080001fe   0x00000000   Code   RO         3686    .ARM.Collect$$libinit$$00000002  c_w.l(libinit2.o)
    0x080001fe   0x080001fe   0x00000000   Code   RO         3688    .ARM.Collect$$libinit$$00000004  c_w.l(libinit2.o)
    0x080001fe   0x080001fe   0x00000008   Code   RO         3689    .ARM.Collect$$libinit$$00000005  c_w.l(libinit2.o)
    0x08000206   0x08000206   0x00000000   Code   RO         3691    .ARM.Collect$$libinit$$0000000A  c_w.l(libinit2.o)
    0x08000206   0x08000206   0x00000000   Code   RO         3693    .ARM.Collect$$libinit$$0000000C  c_w.l(libinit2.o)
    0x08000206   0x08000206   0x00000000   Code   RO         3695    .ARM.Collect$$libinit$$0000000E  c_w.l(libinit2.o)
    0x08000206   0x08000206   0x00000000   Code   RO         3698    .ARM.Collect$$libinit$$00000011  c_w.l(libinit2.o)
    0x08000206   0x08000206   0x00000000   Code   RO         3700    .ARM.Collect$$libinit$$00000013  c_w.l(libinit2.o)
    0x08000206   0x08000206   0x00000000   Code   RO         3702    .ARM.Collect$$libinit$$00000015  c_w.l(libinit2.o)
    0x08000206   0x08000206   0x00000000   Code   RO         3704    .ARM.Collect$$libinit$$00000017  c_w.l(libinit2.o)
    0x08000206   0x08000206   0x00000000   Code   RO         3706    .ARM.Collect$$libinit$$00000019  c_w.l(libinit2.o)
    0x08000206   0x08000206   0x00000000   Code   RO         3708    .ARM.Collect$$libinit$$0000001B  c_w.l(libinit2.o)
    0x08000206   0x08000206   0x00000000   Code   RO         3710    .ARM.Collect$$libinit$$0000001D  c_w.l(libinit2.o)
    0x08000206   0x08000206   0x00000000   Code   RO         3712    .ARM.Collect$$libinit$$0000001F  c_w.l(libinit2.o)
    0x08000206   0x08000206   0x00000000   Code   RO         3714    .ARM.Collect$$libinit$$00000021  c_w.l(libinit2.o)
    0x08000206   0x08000206   0x00000000   Code   RO         3716    .ARM.Collect$$libinit$$00000023  c_w.l(libinit2.o)
    0x08000206   0x08000206   0x00000000   Code   RO         3718    .ARM.Collect$$libinit$$00000025  c_w.l(libinit2.o)
    0x08000206   0x08000206   0x00000000   Code   RO         3722    .ARM.Collect$$libinit$$0000002C  c_w.l(libinit2.o)
    0x08000206   0x08000206   0x00000000   Code   RO         3724    .ARM.Collect$$libinit$$0000002E  c_w.l(libinit2.o)
    0x08000206   0x08000206   0x00000000   Code   RO         3726    .ARM.Collect$$libinit$$00000030  c_w.l(libinit2.o)
    0x08000206   0x08000206   0x00000000   Code   RO         3728    .ARM.Collect$$libinit$$00000032  c_w.l(libinit2.o)
    0x08000206   0x08000206   0x00000002   Code   RO         3729    .ARM.Collect$$libinit$$00000033  c_w.l(libinit2.o)
    0x08000208   0x08000208   0x00000002   Code   RO         3864    .ARM.Collect$$libshutdown$$00000000  c_w.l(libshutdown.o)
    0x0800020a   0x0800020a   0x00000000   Code   RO         3822    .ARM.Collect$$libshutdown$$00000002  c_w.l(libshutdown2.o)
    0x0800020a   0x0800020a   0x00000000   Code   RO         3824    .ARM.Collect$$libshutdown$$00000004  c_w.l(libshutdown2.o)
    0x0800020a   0x0800020a   0x00000000   Code   RO         3827    .ARM.Collect$$libshutdown$$00000007  c_w.l(libshutdown2.o)
    0x0800020a   0x0800020a   0x00000000   Code   RO         3830    .ARM.Collect$$libshutdown$$0000000A  c_w.l(libshutdown2.o)
    0x0800020a   0x0800020a   0x00000000   Code   RO         3832    .ARM.Collect$$libshutdown$$0000000C  c_w.l(libshutdown2.o)
    0x0800020a   0x0800020a   0x00000000   Code   RO         3835    .ARM.Collect$$libshutdown$$0000000F  c_w.l(libshutdown2.o)
    0x0800020a   0x0800020a   0x00000002   Code   RO         3836    .ARM.Collect$$libshutdown$$00000010  c_w.l(libshutdown2.o)
    0x0800020c   0x0800020c   0x00000000   Code   RO         3651    .ARM.Collect$$rtentry$$00000000  c_w.l(__rtentry.o)
    0x0800020c   0x0800020c   0x00000000   Code   RO         3743    .ARM.Collect$$rtentry$$00000002  c_w.l(__rtentry2.o)
    0x0800020c   0x0800020c   0x00000006   Code   RO         3755    .ARM.Collect$$rtentry$$00000004  c_w.l(__rtentry4.o)
    0x08000212   0x08000212   0x00000000   Code   RO         3745    .ARM.Collect$$rtentry$$00000009  c_w.l(__rtentry2.o)
    0x08000212   0x08000212   0x00000004   Code   RO         3746    .ARM.Collect$$rtentry$$0000000A  c_w.l(__rtentry2.o)
    0x08000216   0x08000216   0x00000000   Code   RO         3748    .ARM.Collect$$rtentry$$0000000C  c_w.l(__rtentry2.o)
    0x08000216   0x08000216   0x00000008   Code   RO         3749    .ARM.Collect$$rtentry$$0000000D  c_w.l(__rtentry2.o)
    0x0800021e   0x0800021e   0x00000002   Code   RO         3809    .ARM.Collect$$rtexit$$00000000  c_w.l(rtexit.o)
    0x08000220   0x08000220   0x00000000   Code   RO         3840    .ARM.Collect$$rtexit$$00000002  c_w.l(rtexit2.o)
    0x08000220   0x08000220   0x00000004   Code   RO         3841    .ARM.Collect$$rtexit$$00000003  c_w.l(rtexit2.o)
    0x08000224   0x08000224   0x00000006   Code   RO         3842    .ARM.Collect$$rtexit$$00000004  c_w.l(rtexit2.o)
    0x0800022a   0x0800022a   0x00000002   PAD
    0x0800022c   0x0800022c   0x00000000   Code   RO         3761    .emb_text           c_w.l(maybetermalloc1.o)
    0x0800022c   0x0800022c   0x00000034   Code   RO         1379    .text               cpu_a.o
    0x08000260   0x08000260   0x00000040   Code   RO         2402    .text               startup_stm32f405xx.o
    0x080002a0   0x080002a0   0x0000005e   Code   RO         3555    .text               c_w.l(h1_alloc.o)
    0x080002fe   0x080002fe   0x0000004e   Code   RO         3557    .text               c_w.l(h1_free.o)
    0x0800034c   0x0800034c   0x000000ee   Code   RO         3613    .text               c_w.l(lludivv7m.o)
    0x0800043a   0x0800043a   0x0000004e   Code   RO         3615    .text               c_w.l(rt_memclr_w.o)
    0x08000488   0x08000488   0x00000006   Code   RO         3617    .text               c_w.l(heapauxi.o)
    0x0800048e   0x0800048e   0x00000002   PAD
    0x08000490   0x08000490   0x00000008   Code   RO         3659    .text               c_w.l(rt_heap_descriptor_intlibspace.o)
    0x08000498   0x08000498   0x00000004   Code   RO         3661    .text               c_w.l(hguard.o)
    0x0800049c   0x0800049c   0x0000008a   Code   RO         3663    .text               c_w.l(init_alloc.o)
    0x08000526   0x08000526   0x0000000e   Code   RO         3667    .text               c_w.l(h1_init.o)
    0x08000534   0x08000534   0x00000008   Code   RO         3739    .text               c_w.l(libspace.o)
    0x0800053c   0x0800053c   0x00000034   Code   RO         3763    .text               c_w.l(h1_extend.o)
    0x08000570   0x08000570   0x0000000e   Code   RO         3767    .text               c_w.l(defsig_rtmem_outer.o)
    0x0800057e   0x0800057e   0x00000002   Code   RO         3778    .text               c_w.l(use_no_semi.o)
    0x08000580   0x08000580   0x00000000   Code   RO         3780    .text               c_w.l(indicate_semi.o)
    0x08000580   0x08000580   0x0000004a   Code   RO         3781    .text               c_w.l(sys_stackheap_outer.o)
    0x080005ca   0x080005ca   0x00000012   Code   RO         3787    .text               c_w.l(exit.o)
    0x080005dc   0x080005dc   0x0000000a   Code   RO         3789    .text               c_w.l(defsig_exit.o)
    0x080005e6   0x080005e6   0x00000002   PAD
    0x080005e8   0x080005e8   0x00000050   Code   RO         3795    .text               c_w.l(defsig_rtmem_inner.o)
    0x08000638   0x08000638   0x0000000c   Code   RO         3807    .text               c_w.l(sys_exit.o)
    0x08000644   0x08000644   0x00000032   Code   RO         3817    .text               c_w.l(defsig_general.o)
    0x08000676   0x08000676   0x0000000e   Code   RO         3837    .text               c_w.l(sys_wrch.o)
    0x08000684   0x08000684   0x000000f8   Code   RO         2359    CODE                os_cpu_a.o
    0x0800077c   0x0800077c   0x00000004   Code   RO          490    i.BusFault_Handler  wit.o
    0x08000780   0x08000780   0x00000008   Code   RO         1218    i.CPU_Init          cpu_core.o
    0x08000788   0x08000788   0x00000014   Code   RO         1223    i.CPU_TS_Init       cpu_core.o
    0x0800079c   0x0800079c   0x0000000c   Code   RO         1225    i.CPU_TS_TmrFreqSet  cpu_core.o
    0x080007a8   0x080007a8   0x00000034   Code   RO         1178    i.CPU_TS_TmrInit    os_bsp.o
    0x080007dc   0x080007dc   0x0000000c   Code   RO         1179    i.CPU_TS_TmrRd      os_bsp.o
    0x080007e8   0x080007e8   0x00000028   Code   RO          764    i.DMA1_Stream0_IRQHandler  wdma.o
    0x08000810   0x08000810   0x00000028   Code   RO          765    i.DMA1_Stream1_IRQHandler  wdma.o
    0x08000838   0x08000838   0x00000028   Code   RO          766    i.DMA1_Stream2_IRQHandler  wdma.o
    0x08000860   0x08000860   0x00000028   Code   RO          767    i.DMA1_Stream3_IRQHandler  wdma.o
    0x08000888   0x08000888   0x00000028   Code   RO          768    i.DMA1_Stream4_IRQHandler  wdma.o
    0x080008b0   0x080008b0   0x00000028   Code   RO          769    i.DMA1_Stream5_IRQHandler  wdma.o
    0x080008d8   0x080008d8   0x00000028   Code   RO          770    i.DMA1_Stream6_IRQHandler  wdma.o
    0x08000900   0x08000900   0x00000028   Code   RO          771    i.DMA1_Stream7_IRQHandler  wdma.o
    0x08000928   0x08000928   0x00000028   Code   RO          772    i.DMA2_Stream0_IRQHandler  wdma.o
    0x08000950   0x08000950   0x00000028   Code   RO          773    i.DMA2_Stream1_IRQHandler  wdma.o
    0x08000978   0x08000978   0x00000028   Code   RO          774    i.DMA2_Stream2_IRQHandler  wdma.o
    0x080009a0   0x080009a0   0x00000028   Code   RO          775    i.DMA2_Stream3_IRQHandler  wdma.o
    0x080009c8   0x080009c8   0x00000028   Code   RO          776    i.DMA2_Stream4_IRQHandler  wdma.o
    0x080009f0   0x080009f0   0x00000028   Code   RO          777    i.DMA2_Stream5_IRQHandler  wdma.o
    0x08000a18   0x08000a18   0x00000028   Code   RO          778    i.DMA2_Stream6_IRQHandler  wdma.o
    0x08000a40   0x08000a40   0x00000028   Code   RO          779    i.DMA2_Stream7_IRQHandler  wdma.o
    0x08000a68   0x08000a68   0x00000034   Code   RO         3074    i.DMA_CalcBaseAndBitshift  stm32f4xx_hal_dma.o
    0x08000a9c   0x08000a9c   0x000000aa   Code   RO         3075    i.DMA_CheckFifoParam  stm32f4xx_hal_dma.o
    0x08000b46   0x08000b46   0x0000002c   Code   RO         3076    i.DMA_SetConfig     stm32f4xx_hal_dma.o
    0x08000b72   0x08000b72   0x00000002   Code   RO          491    i.DebugMon_Handler  wit.o
    0x08000b74   0x08000b74   0x00000018   Code   RO          386    i.EXTI0_IRQHandler  wgpio.o
    0x08000b8c   0x08000b8c   0x00000042   Code   RO          387    i.EXTI15_10_IRQHandler  wgpio.o
    0x08000bce   0x08000bce   0x00000018   Code   RO          388    i.EXTI1_IRQHandler  wgpio.o
    0x08000be6   0x08000be6   0x00000018   Code   RO          389    i.EXTI2_IRQHandler  wgpio.o
    0x08000bfe   0x08000bfe   0x00000018   Code   RO          390    i.EXTI3_IRQHandler  wgpio.o
    0x08000c16   0x08000c16   0x00000018   Code   RO          391    i.EXTI4_IRQHandler  wgpio.o
    0x08000c2e   0x08000c2e   0x00000034   Code   RO          392    i.EXTI9_5_IRQHandler  wgpio.o
    0x08000c62   0x08000c62   0x00000028   Code   RO         3078    i.HAL_DMA_Abort_IT  stm32f4xx_hal_dma.o
    0x08000c8a   0x08000c8a   0x00000002   PAD
    0x08000c8c   0x08000c8c   0x00000240   Code   RO         3082    i.HAL_DMA_IRQHandler  stm32f4xx_hal_dma.o
    0x08000ecc   0x08000ecc   0x000000ec   Code   RO         3083    i.HAL_DMA_Init      stm32f4xx_hal_dma.o
    0x08000fb8   0x08000fb8   0x0000009e   Code   RO         3087    i.HAL_DMA_Start_IT  stm32f4xx_hal_dma.o
    0x08001056   0x08001056   0x00000002   PAD
    0x08001058   0x08001058   0x000000bc   Code   RO          393    i.HAL_GPIO_EXTI_Callback  wgpio.o
    0x08001114   0x08001114   0x0000001c   Code   RO         2594    i.HAL_GPIO_EXTI_IRQHandler  stm32f4xx_hal_gpio.o
    0x08001130   0x08001130   0x00000200   Code   RO         2595    i.HAL_GPIO_Init     stm32f4xx_hal_gpio.o
    0x08001330   0x08001330   0x00000012   Code   RO         2598    i.HAL_GPIO_TogglePin  stm32f4xx_hal_gpio.o
    0x08001342   0x08001342   0x0000000c   Code   RO         2599    i.HAL_GPIO_WritePin  stm32f4xx_hal_gpio.o
    0x0800134e   0x0800134e   0x00000002   PAD
    0x08001350   0x08001350   0x0000000c   Code   RO         2421    i.HAL_GetREVID      stm32f4xx_hal.o
    0x0800135c   0x0800135c   0x0000000c   Code   RO         2422    i.HAL_GetTick       stm32f4xx_hal.o
    0x08001368   0x08001368   0x00000018   Code   RO         2428    i.HAL_IncTick       stm32f4xx_hal.o
    0x08001380   0x08001380   0x0000003c   Code   RO         2429    i.HAL_Init          stm32f4xx_hal.o
    0x080013bc   0x080013bc   0x0000004c   Code   RO         2430    i.HAL_InitTick      stm32f4xx_hal.o
    0x08001408   0x08001408   0x000000cc   Code   RO          556    i.HAL_MspInit       wsys.o
    0x080014d4   0x080014d4   0x00000024   Code   RO         2937    i.HAL_NVIC_ClearPendingIRQ  stm32f4xx_hal_cortex.o
    0x080014f8   0x080014f8   0x00000020   Code   RO         2939    i.HAL_NVIC_EnableIRQ  stm32f4xx_hal_cortex.o
    0x08001518   0x08001518   0x0000007c   Code   RO         2945    i.HAL_NVIC_SetPriority  stm32f4xx_hal_cortex.o
    0x08001594   0x08001594   0x00000028   Code   RO         2946    i.HAL_NVIC_SetPriorityGrouping  stm32f4xx_hal_cortex.o
    0x080015bc   0x080015bc   0x00000044   Code   RO         2947    i.HAL_NVIC_SystemReset  stm32f4xx_hal_cortex.o
    0x08001600   0x08001600   0x00000180   Code   RO         2779    i.HAL_RCC_ClockConfig  stm32f4xx_hal_rcc.o
    0x08001780   0x08001780   0x00000178   Code   RO         2885    i.HAL_RCC_DeInit    stm32f4xx_hal_rcc_ex.o
    0x080018f8   0x080018f8   0x0000000c   Code   RO         2782    i.HAL_RCC_EnableCSS  stm32f4xx_hal_rcc.o
    0x08001904   0x08001904   0x0000000c   Code   RO         2784    i.HAL_RCC_GetHCLKFreq  stm32f4xx_hal_rcc.o
    0x08001910   0x08001910   0x00000020   Code   RO         2786    i.HAL_RCC_GetPCLK1Freq  stm32f4xx_hal_rcc.o
    0x08001930   0x08001930   0x00000020   Code   RO         2787    i.HAL_RCC_GetPCLK2Freq  stm32f4xx_hal_rcc.o
    0x08001950   0x08001950   0x000000b0   Code   RO         2788    i.HAL_RCC_GetSysClockFreq  stm32f4xx_hal_rcc.o
    0x08001a00   0x08001a00   0x00000448   Code   RO         2791    i.HAL_RCC_OscConfig  stm32f4xx_hal_rcc.o
    0x08001e48   0x08001e48   0x00000028   Code   RO         2948    i.HAL_SYSTICK_CLKSourceConfig  stm32f4xx_hal_cortex.o
    0x08001e70   0x08001e70   0x00000034   Code   RO         2950    i.HAL_SYSTICK_Config  stm32f4xx_hal_cortex.o
    0x08001ea4   0x08001ea4   0x00000002   Code   RO         3232    i.HAL_UART_AbortReceiveCpltCallback  stm32f4xx_hal_uart.o
    0x08001ea6   0x08001ea6   0x00000002   PAD
    0x08001ea8   0x08001ea8   0x00000078   Code   RO         3233    i.HAL_UART_AbortReceive_IT  stm32f4xx_hal_uart.o
    0x08001f20   0x08001f20   0x00000002   Code   RO         3242    i.HAL_UART_ErrorCallback  stm32f4xx_hal_uart.o
    0x08001f22   0x08001f22   0x00000002   PAD
    0x08001f24   0x08001f24   0x0000014c   Code   RO         3245    i.HAL_UART_IRQHandler  stm32f4xx_hal_uart.o
    0x08002070   0x08002070   0x00000072   Code   RO         3246    i.HAL_UART_Init     stm32f4xx_hal_uart.o
    0x080020e2   0x080020e2   0x00000002   Code   RO         3248    i.HAL_UART_MspInit  stm32f4xx_hal_uart.o
    0x080020e4   0x080020e4   0x000000c4   Code   RO         3250    i.HAL_UART_Receive_DMA  stm32f4xx_hal_uart.o
    0x080021a8   0x080021a8   0x00000002   Code   RO         3252    i.HAL_UART_RxCpltCallback  stm32f4xx_hal_uart.o
    0x080021aa   0x080021aa   0x00000002   PAD
    0x080021ac   0x080021ac   0x0000004c   Code   RO          622    i.HAL_UART_RxCpltCallback_Idle  wuart.o
    0x080021f8   0x080021f8   0x00000002   Code   RO         3253    i.HAL_UART_RxHalfCpltCallback  stm32f4xx_hal_uart.o
    0x080021fa   0x080021fa   0x00000002   PAD
    0x080021fc   0x080021fc   0x0000009c   Code   RO         3255    i.HAL_UART_Transmit_DMA  stm32f4xx_hal_uart.o
    0x08002298   0x08002298   0x00000040   Code   RO          623    i.HAL_UART_TxCpltCallback  wuart.o
    0x080022d8   0x080022d8   0x00000002   Code   RO         3258    i.HAL_UART_TxHalfCpltCallback  stm32f4xx_hal_uart.o
    0x080022da   0x080022da   0x00000004   Code   RO          492    i.HardFault_Handler  wit.o
    0x080022de   0x080022de   0x00000002   PAD
    0x080022e0   0x080022e0   0x00000090   Code   RO            4    i.MainTask          main.o
    0x08002370   0x08002370   0x00000004   Code   RO          493    i.MemManage_Handler  wit.o
    0x08002374   0x08002374   0x00000002   Code   RO          494    i.NMI_Handler       wit.o
    0x08002376   0x08002376   0x00000002   Code   RO         1382    i.OSCfg_Init        os_cfg_app.o
    0x08002378   0x08002378   0x00000124   Code   RO         1402    i.OSInit            os_core.o
    0x0800249c   0x0800249c   0x00000034   Code   RO         2266    i.OSInitHook        os_cpu_c.o
    0x080024d0   0x080024d0   0x0000002c   Code   RO         1403    i.OSIntEnter        os_core.o
    0x080024fc   0x080024fc   0x000000d4   Code   RO         1404    i.OSIntExit         os_core.o
    0x080025d0   0x080025d0   0x00000084   Code   RO         1717    i.OSMutexCreate     os_mutex.o
    0x08002654   0x08002654   0x000001b8   Code   RO         1719    i.OSMutexPend       os_mutex.o
    0x0800280c   0x0800280c   0x00000150   Code   RO         1720    i.OSMutexPost       os_mutex.o
    0x0800295c   0x0800295c   0x0000009c   Code   RO         1405    i.OSSched           os_core.o
    0x080029f8   0x080029f8   0x00000080   Code   RO         1873    i.OSSemCreate       os_sem.o
    0x08002a78   0x08002a78   0x00000154   Code   RO         1875    i.OSSemPend         os_sem.o
    0x08002bcc   0x08002bcc   0x000000ba   Code   RO         1876    i.OSSemPost         os_sem.o
    0x08002c86   0x08002c86   0x0000004c   Code   RO         1877    i.OSSemSet          os_sem.o
    0x08002cd2   0x08002cd2   0x00000002   PAD
    0x08002cd4   0x08002cd4   0x00000098   Code   RO         1408    i.OSStart           os_core.o
    0x08002d6c   0x08002d6c   0x00000118   Code   RO         1927    i.OSStatReset       os_stat.o
    0x08002e84   0x08002e84   0x000000f4   Code   RO         1928    i.OSStatTaskCPUUsageInit  os_stat.o
    0x08002f78   0x08002f78   0x00000002   Code   RO         2267    i.OSStatTaskHook    os_cpu_c.o
    0x08002f7a   0x08002f7a   0x00000002   PAD
    0x08002f7c   0x08002f7c   0x00000144   Code   RO         1958    i.OSTaskCreate      os_task.o
    0x080030c0   0x080030c0   0x00000002   Code   RO         2268    i.OSTaskCreateHook  os_cpu_c.o
    0x080030c2   0x080030c2   0x00000002   PAD
    0x080030c4   0x080030c4   0x0000017c   Code   RO         1959    i.OSTaskDel         os_task.o
    0x08003240   0x08003240   0x00000002   Code   RO         2269    i.OSTaskDelHook     os_cpu_c.o
    0x08003242   0x08003242   0x00000100   Code   RO         1963    i.OSTaskResume      os_task.o
    0x08003342   0x08003342   0x00000002   Code   RO         2270    i.OSTaskReturnHook  os_cpu_c.o
    0x08003344   0x08003344   0x000000b4   Code   RO         1967    i.OSTaskStkChk      os_task.o
    0x080033f8   0x080033f8   0x000000d0   Code   RO         2271    i.OSTaskStkInit     os_cpu_c.o
    0x080034c8   0x080034c8   0x00000170   Code   RO         1968    i.OSTaskSuspend     os_task.o
    0x08003638   0x08003638   0x00000050   Code   RO         2272    i.OSTaskSwHook      os_cpu_c.o
    0x08003688   0x08003688   0x00000094   Code   RO         2112    i.OSTimeDly         os_time.o
    0x0800371c   0x0800371c   0x00000020   Code   RO         2115    i.OSTimeTick        os_time.o
    0x0800373c   0x0800373c   0x00000002   Code   RO         2273    i.OSTimeTickHook    os_cpu_c.o
    0x0800373e   0x0800373e   0x00000002   PAD
    0x08003740   0x08003740   0x000000ac   Code   RO         2142    i.OSTmrCreate       os_tmr.o
    0x080037ec   0x080037ec   0x0000003c   Code   RO         2144    i.OSTmrSet          os_tmr.o
    0x08003828   0x08003828   0x000000d8   Code   RO         2145    i.OSTmrStart        os_tmr.o
    0x08003900   0x08003900   0x0000002e   Code   RO         2274    i.OS_CPU_SysTickHandler  os_cpu_c.o
    0x0800392e   0x0800392e   0x00000002   PAD
    0x08003930   0x08003930   0x00000038   Code   RO         2275    i.OS_CPU_SysTickInit  os_cpu_c.o
    0x08003968   0x08003968   0x00000228   Code   RO         1564    i.OS_Dbg_Init       os_dbg.o
    0x08003b90   0x08003b90   0x0000003c   Code   RO         1410    i.OS_IdleTask       os_core.o
    0x08003bcc   0x08003bcc   0x00000070   Code   RO         1411    i.OS_IdleTaskInit   os_core.o
    0x08003c3c   0x08003c3c   0x00000018   Code   RO         1649    i.OS_MemInit        os_mem.o
    0x08003c54   0x08003c54   0x0000005c   Code   RO         1681    i.OS_MsgPoolInit    os_msg.o
    0x08003cb0   0x08003cb0   0x00000030   Code   RO         1722    i.OS_MutexDbgListAdd  os_mutex.o
    0x08003ce0   0x08003ce0   0x00000008   Code   RO         1724    i.OS_MutexGrpAdd    os_mutex.o
    0x08003ce8   0x08003ce8   0x0000005e   Code   RO         1725    i.OS_MutexGrpPostAll  os_mutex.o
    0x08003d46   0x08003d46   0x0000002a   Code   RO         1726    i.OS_MutexGrpPrioFindHighest  os_mutex.o
    0x08003d70   0x08003d70   0x0000001c   Code   RO         1727    i.OS_MutexGrpRemove  os_mutex.o
    0x08003d8c   0x08003d8c   0x00000040   Code   RO         1412    i.OS_Pend           os_core.o
    0x08003dcc   0x08003dcc   0x00000058   Code   RO         1414    i.OS_PendDbgNameAdd  os_core.o
    0x08003e24   0x08003e24   0x00000024   Code   RO         1415    i.OS_PendDbgNameRemove  os_core.o
    0x08003e48   0x08003e48   0x00000022   Code   RO         1416    i.OS_PendListChangePrio  os_core.o
    0x08003e6a   0x08003e6a   0x0000000a   Code   RO         1417    i.OS_PendListInit   os_core.o
    0x08003e74   0x08003e74   0x00000066   Code   RO         1418    i.OS_PendListInsertPrio  os_core.o
    0x08003eda   0x08003eda   0x0000004e   Code   RO         1419    i.OS_PendListRemove  os_core.o
    0x08003f28   0x08003f28   0x000000ac   Code   RO         1420    i.OS_Post           os_core.o
    0x08003fd4   0x08003fd4   0x00000028   Code   RO         1789    i.OS_PrioGetHighest  os_prio.o
    0x08003ffc   0x08003ffc   0x00000018   Code   RO         1790    i.OS_PrioInit       os_prio.o
    0x08004014   0x08004014   0x00000034   Code   RO         1791    i.OS_PrioInsert     os_prio.o
    0x08004048   0x08004048   0x00000034   Code   RO         1792    i.OS_PrioRemove     os_prio.o
    0x0800407c   0x0800407c   0x00000024   Code   RO         1421    i.OS_RdyListInit    os_core.o
    0x080040a0   0x080040a0   0x0000002c   Code   RO         1422    i.OS_RdyListInsert  os_core.o
    0x080040cc   0x080040cc   0x00000040   Code   RO         1423    i.OS_RdyListInsertHead  os_core.o
    0x0800410c   0x0800410c   0x0000003c   Code   RO         1424    i.OS_RdyListInsertTail  os_core.o
    0x08004148   0x08004148   0x0000005c   Code   RO         1426    i.OS_RdyListRemove  os_core.o
    0x080041a4   0x080041a4   0x00000030   Code   RO         1879    i.OS_SemDbgListAdd  os_sem.o
    0x080041d4   0x080041d4   0x00000340   Code   RO         1929    i.OS_StatTask       os_stat.o
    0x08004514   0x08004514   0x000000dc   Code   RO         1930    i.OS_StatTaskInit   os_stat.o
    0x080045f0   0x080045f0   0x00000030   Code   RO         1427    i.OS_TaskBlock      os_core.o
    0x08004620   0x08004620   0x000000e8   Code   RO         1969    i.OS_TaskChangePrio  os_task.o
    0x08004708   0x08004708   0x00000030   Code   RO         1970    i.OS_TaskDbgListAdd  os_task.o
    0x08004738   0x08004738   0x00000044   Code   RO         1971    i.OS_TaskDbgListRemove  os_task.o
    0x0800477c   0x0800477c   0x00000020   Code   RO         1972    i.OS_TaskInit       os_task.o
    0x0800479c   0x0800479c   0x000000a4   Code   RO         1973    i.OS_TaskInitTCB    os_task.o
    0x08004840   0x08004840   0x00000018   Code   RO         1974    i.OS_TaskReturn     os_task.o
    0x08004858   0x08004858   0x0000001c   Code   RO         2071    i.OS_TickInit       os_tick.o
    0x08004874   0x08004874   0x000000ac   Code   RO         2072    i.OS_TickListInsert  os_tick.o
    0x08004920   0x08004920   0x0000008c   Code   RO         2073    i.OS_TickListInsertDly  os_tick.o
    0x080049ac   0x080049ac   0x00000058   Code   RO         2074    i.OS_TickListRemove  os_tick.o
    0x08004a04   0x08004a04   0x0000013c   Code   RO         2075    i.OS_TickListUpdate  os_tick.o
    0x08004b40   0x08004b40   0x00000064   Code   RO         2076    i.OS_TickUpdate     os_tick.o
    0x08004ba4   0x08004ba4   0x00000040   Code   RO         2149    i.OS_TmrCondCreate  os_tmr.o
    0x08004be4   0x08004be4   0x00000060   Code   RO         2150    i.OS_TmrCondSignal  os_tmr.o
    0x08004c44   0x08004c44   0x0000012c   Code   RO         2151    i.OS_TmrCondWait    os_tmr.o
    0x08004d70   0x08004d70   0x00000028   Code   RO         2152    i.OS_TmrDbgListAdd  os_tmr.o
    0x08004d98   0x08004d98   0x00000120   Code   RO         2154    i.OS_TmrInit        os_tmr.o
    0x08004eb8   0x08004eb8   0x000000b8   Code   RO         2155    i.OS_TmrLink        os_tmr.o
    0x08004f70   0x08004f70   0x00000018   Code   RO         2156    i.OS_TmrLock        os_tmr.o
    0x08004f88   0x08004f88   0x00000114   Code   RO         2157    i.OS_TmrTask        os_tmr.o
    0x0800509c   0x0800509c   0x000000cc   Code   RO         2158    i.OS_TmrUnlink      os_tmr.o
    0x08005168   0x08005168   0x00000014   Code   RO         2159    i.OS_TmrUnlock      os_tmr.o
    0x0800517c   0x0800517c   0x00000002   Code   RO          495    i.SVC_Handler       wit.o
    0x0800517e   0x0800517e   0x0000000c   Code   RO          496    i.SysTick_Handler   wit.o
    0x0800518a   0x0800518a   0x00000002   PAD
    0x0800518c   0x0800518c   0x00000054   Code   RO         2366    i.SystemInit        system_stm32f4xx.o
    0x080051e0   0x080051e0   0x00000030   Code   RO          624    i.UART4_IRQHandler  wuart.o
    0x08005210   0x08005210   0x00000030   Code   RO          625    i.UART5_IRQHandler  wuart.o
    0x08005240   0x08005240   0x00000014   Code   RO         3259    i.UART_DMAAbortOnError  stm32f4xx_hal_uart.o
    0x08005254   0x08005254   0x00000050   Code   RO         3260    i.UART_DMAError     stm32f4xx_hal_uart.o
    0x080052a4   0x080052a4   0x00000046   Code   RO         3261    i.UART_DMAReceiveCplt  stm32f4xx_hal_uart.o
    0x080052ea   0x080052ea   0x0000000e   Code   RO         3263    i.UART_DMARxHalfCplt  stm32f4xx_hal_uart.o
    0x080052f8   0x080052f8   0x00000018   Code   RO         3264    i.UART_DMARxOnlyAbortCallback  stm32f4xx_hal_uart.o
    0x08005310   0x08005310   0x00000036   Code   RO         3265    i.UART_DMATransmitCplt  stm32f4xx_hal_uart.o
    0x08005346   0x08005346   0x0000000e   Code   RO         3267    i.UART_DMATxHalfCplt  stm32f4xx_hal_uart.o
    0x08005354   0x08005354   0x00000020   Code   RO         3269    i.UART_EndRxTransfer  stm32f4xx_hal_uart.o
    0x08005374   0x08005374   0x00000020   Code   RO         3270    i.UART_EndTransmit_IT  stm32f4xx_hal_uart.o
    0x08005394   0x08005394   0x00000014   Code   RO         3271    i.UART_EndTxTransfer  stm32f4xx_hal_uart.o
    0x080053a8   0x080053a8   0x000000a6   Code   RO         3272    i.UART_Receive_IT   stm32f4xx_hal_uart.o
    0x0800544e   0x0800544e   0x00000002   PAD
    0x08005450   0x08005450   0x00000368   Code   RO         3273    i.UART_SetConfig    stm32f4xx_hal_uart.o
    0x080057b8   0x080057b8   0x00000068   Code   RO         3274    i.UART_Transmit_IT  stm32f4xx_hal_uart.o
    0x08005820   0x08005820   0x00000030   Code   RO          626    i.USART1_IRQHandler  wuart.o
    0x08005850   0x08005850   0x00000030   Code   RO          627    i.USART2_IRQHandler  wuart.o
    0x08005880   0x08005880   0x00000030   Code   RO          628    i.USART3_IRQHandler  wuart.o
    0x080058b0   0x080058b0   0x00000030   Code   RO          629    i.USART6_IRQHandler  wuart.o
    0x080058e0   0x080058e0   0x00000004   Code   RO          497    i.UsageFault_Handler  wit.o
    0x080058e4   0x080058e4   0x00000010   Code   RO         2952    i.__NVIC_GetPriorityGrouping  stm32f4xx_hal_cortex.o
    0x080058f4   0x080058f4   0x00000028   Code   RO         2953    i.__NVIC_SetPriority  stm32f4xx_hal_cortex.o
    0x0800591c   0x0800591c   0x00000048   Code   RO          884    i.__ecvround        wsprintf.o
    0x08005964   0x08005964   0x000001f4   Code   RO          885    i.cfltcvt           wsprintf.o
    0x08005b58   0x08005b58   0x0000005c   Code   RO          886    i.cropzeros         wsprintf.o
    0x08005bb4   0x08005bb4   0x000000b8   Code   RO          887    i.eaddr             wsprintf.o
    0x08005c6c   0x08005c6c   0x00000140   Code   RO          888    i.ecvtbuf           wsprintf.o
    0x08005dac   0x08005dac   0x0000014c   Code   RO          889    i.fcvtbuf           wsprintf.o
    0x08005ef8   0x08005ef8   0x0000012a   Code   RO          890    i.flt               wsprintf.o
    0x08006022   0x08006022   0x00000054   Code   RO          891    i.forcdecpt         wsprintf.o
    0x08006076   0x08006076   0x00000002   PAD
    0x08006078   0x08006078   0x00000150   Code   RO          892    i.ftoa              wsprintf.o
    0x080061c8   0x080061c8   0x000001d4   Code   RO          893    i.ftoaE             wsprintf.o
    0x0800639c   0x0800639c   0x00000124   Code   RO          894    i.iaddr             wsprintf.o
    0x080064c0   0x080064c0   0x00000088   Code   RO            5    i.main              main.o
    0x08006548   0x08006548   0x0000015c   Code   RO          895    i.number            wsprintf.o
    0x080066a4   0x080066a4   0x0000002c   Code   RO          896    i.skip_atoi         wsprintf.o
    0x080066d0   0x080066d0   0x000001d4   Code   RO          780    i.wDma_Init         wdma.o
    0x080068a4   0x080068a4   0x00000350   Code   RO          395    i.wGpio_Init        wgpio.o
    0x08006bf4   0x08006bf4   0x000000ac   Code   RO          396    i.wGpio_putInit     wgpio.o
    0x08006ca0   0x08006ca0   0x00000058   Code   RO          398    i.wGpio_putWrite    wgpio.o
    0x08006cf8   0x08006cf8   0x000000b4   Code   RO          234    i.wLed_IdInit       wled.o
    0x08006dac   0x08006dac   0x00000048   Code   RO          236    i.wLed_SetIdStatus  wled.o
    0x08006df4   0x08006df4   0x000000ec   Code   RO          238    i.wLed_TmrOff       wled.o
    0x08006ee0   0x08006ee0   0x00000094   Code   RO          239    i.wLed_TmrOn        wled.o
    0x08006f74   0x08006f74   0x00000098   Code   RO          295    i.wSerial_Init      wserial.o
    0x0800700c   0x0800700c   0x00000052   Code   RO          296    i.wSerial_Printf    wserial.o
    0x0800705e   0x0800705e   0x00000002   PAD
    0x08007060   0x08007060   0x00000088   Code   RO          298    i.wSerial_Receive   wserial.o
    0x080070e8   0x080070e8   0x00000044   Code   RO          299    i.wSerial_RxIdleIRQHandler  wserial.o
    0x0800712c   0x0800712c   0x00000058   Code   RO          300    i.wSerial_Transmit  wserial.o
    0x08007184   0x08007184   0x0000003c   Code   RO          302    i.wSerial_TxIRQHandler  wserial.o
    0x080071c0   0x080071c0   0x00000082   Code   RO          979    i.wStr_Atoi         wstr.o
    0x08007242   0x08007242   0x0000001e   Code   RO          980    i.wStr_Chr          wstr.o
    0x08007260   0x08007260   0x0000002e   Code   RO          981    i.wStr_Cmp          wstr.o
    0x0800728e   0x0800728e   0x00000054   Code   RO          985    i.wStr_Itoa         wstr.o
    0x080072e2   0x080072e2   0x00000016   Code   RO          986    i.wStr_Len          wstr.o
    0x080072f8   0x080072f8   0x00000020   Code   RO          987    i.wStr_MeSet        wstr.o
    0x08007318   0x08007318   0x00000034   Code   RO          988    i.wStr_MemCpy       wstr.o
    0x0800734c   0x0800734c   0x0000002c   Code   RO          994    i.wStr_nContain     wstr.o
    0x08007378   0x08007378   0x0000001c   Code   RO          995    i.wStr_nLen         wstr.o
    0x08007394   0x08007394   0x0000011c   Code   RO          557    i.wSys_ClockConfig  wsys.o
    0x080074b0   0x080074b0   0x00000008   Code   RO          559    i.wSys_GetClkFreq   wsys.o
    0x080074b8   0x080074b8   0x00000012   Code   RO          562    i.wSys_TmrReset     wsys.o
    0x080074ca   0x080074ca   0x00000002   PAD
    0x080074cc   0x080074cc   0x00000038   Code   RO          630    i.wUart_AbortReceive  wuart.o
    0x08007504   0x08007504   0x00000048   Code   RO          631    i.wUart_CSSEnable   wuart.o
    0x0800754c   0x0800754c   0x000001c8   Code   RO          633    i.wUart_DMAInit     wuart.o
    0x08007714   0x08007714   0x00000054   Code   RO          634    i.wUart_DMAReceive  wuart.o
    0x08007768   0x08007768   0x0000001c   Code   RO          635    i.wUart_DMATransmit  wuart.o
    0x08007784   0x08007784   0x00000334   Code   RO          638    i.wUart_Init        wuart.o
    0x08007ab8   0x08007ab8   0x00000040   Code   RO          639    i.wUart_List        wuart.o
    0x08007af8   0x08007af8   0x0000000c   Code   RO          640    i.wUart_SetCallback  wuart.o
    0x08007b04   0x08007b04   0x0000040c   Code   RO          898    i.wvsprintf         wsprintf.o
    0x08007f10   0x08007f10   0x00000150   Code   RO         3621    x$fpl$dadd          fz_ws.l(daddsub_clz.o)
    0x08008060   0x08008060   0x00000018   Code   RO         3730    x$fpl$dcmpinf       fz_ws.l(dcmpi.o)
    0x08008078   0x08008078   0x00000078   Code   RO         3631    x$fpl$deqf          fz_ws.l(deqf.o)
    0x080080f0   0x080080f0   0x0000005e   Code   RO         3633    x$fpl$dfix          fz_ws.l(dfix.o)
    0x0800814e   0x0800814e   0x0000002e   Code   RO         3638    x$fpl$dflt          fz_ws.l(dflt_clz.o)
    0x0800817c   0x0800817c   0x00000078   Code   RO         3643    x$fpl$dleqf         fz_ws.l(dleqf.o)
    0x080081f4   0x080081f4   0x00000154   Code   RO         3645    x$fpl$dmul          fz_ws.l(dmul.o)
    0x08008348   0x08008348   0x0000009c   Code   RO         3732    x$fpl$dnaninf       fz_ws.l(dnaninf.o)
    0x080083e4   0x080083e4   0x0000000c   Code   RO         3734    x$fpl$dretinf       fz_ws.l(dretinf.o)
    0x080083f0   0x080083f0   0x0000006c   Code   RO         3647    x$fpl$drleqf        fz_ws.l(drleqf.o)
    0x0800845c   0x0800845c   0x00000016   Code   RO         3622    x$fpl$drsb          fz_ws.l(daddsub_clz.o)
    0x08008472   0x08008472   0x00000002   PAD
    0x08008474   0x08008474   0x000001d4   Code   RO         3623    x$fpl$dsub          fz_ws.l(daddsub_clz.o)
    0x08008648   0x08008648   0x00000000   Code   RO         3736    x$fpl$usenofp       fz_ws.l(usenofp.o)
    0x08008648   0x08008648   0x00000064   Data   RO         1384    .constdata          os_cfg_app.o
    0x080086ac   0x080086ac   0x00000168   Data   RO         1565    .constdata          os_dbg.o
    0x08008814   0x08008814   0x00000018   Data   RO         2367    .constdata          system_stm32f4xx.o
    0x0800882c   0x0800882c   0x00000008   Data   RO         3089    .constdata          stm32f4xx_hal_dma.o
    0x08008834   0x08008834   0x0000004d   Data   RO          899    .conststring        wsprintf.o
    0x08008881   0x08008881   0x00000003   PAD
    0x08008884   0x08008884   0x00000020   Data   RO         3865    Region$$Table       anon$$obj.o


    Execution Region RW_IRAM1 (Exec base: 0x20000000, Load base: 0x080088a4, Size: 0x00003d10, Max: 0x00020000, ABSOLUTE)

    Exec Addr    Load Addr    Size         Type   Attr      Idx    E Section Name        Object

    0x20000000   0x080088a4   0x00000004   Data   RW          642    .data               wuart.o
    0x20000004   0x080088a8   0x0000001a   Data   RW          900    .data               wsprintf.o
    0x2000001e   0x080088c2   0x00000002   PAD
    0x20000020   0x080088c4   0x00000004   Data   RW         1228    .data               cpu_core.o
    0x20000024   0x080088c8   0x000000a4   Data   RW         2252    .data               os_var.o
    0x200000c8   0x0800896c   0x00000008   Data   RW         2277    .data               os_cpu_c.o
    0x200000d0   0x08008974   0x00000004   Data   RW         2368    .data               system_stm32f4xx.o
    0x200000d4   0x08008978   0x00000009   Data   RW         2436    .data               stm32f4xx_hal.o
    0x200000dd   0x08008981   0x00000003   PAD
    0x200000e0        -       0x0000069c   Zero   RW            6    .bss                main.o
    0x2000077c        -       0x000000d8   Zero   RW          240    .bss                wled.o
    0x20000854        -       0x00000438   Zero   RW          303    .bss                wserial.o
    0x20000c8c        -       0x00000040   Zero   RW          399    .bss                wgpio.o
    0x20000ccc        -       0x00000030   Zero   RW          563    .bss                wsys.o
    0x20000cfc        -       0x0000001c   Zero   RW          641    .bss                wuart.o
    0x20000d18        -       0x00000040   Zero   RW          781    .bss                wdma.o
    0x20000d58        -       0x00001200   Zero   RW         1383    .bss                os_cfg_app.o
    0x20001f58        -       0x00000558   Zero   RW         2251    .bss                os_var.o
    0x200024b0        -       0x00000060   Zero   RW         3740    .bss                c_w.l(libspace.o)
    0x20002510        -       0x00000800   Zero   RW         2400    HEAP                startup_stm32f405xx.o
    0x20002d10        -       0x00001000   Zero   RW         2399    STACK               startup_stm32f405xx.o


==============================================================================

Image component sizes


      Code (inc. data)   RO Data    RW Data    ZI Data      Debug   Object Name

        52          0          0          0          0        480   cpu_a.o
        40         12          0          4          0       4470   cpu_core.o
       280         78          0          0       1692     649790   main.o
        64         14          0          0          0       1280   os_bsp.o
         2          0        100          0       4608      17783   os_cfg_app.o
      1956        302          0          0          0      17099   os_core.o
       248          4          0          0          0        536   os_cpu_a.o
       452         38          0          8          0      25943   os_cpu_c.o
       552        268        360          0          0       5225   os_dbg.o
        24         10          0          0          0       1193   os_mem.o
        92         12          0          0          0       1357   os_msg.o
      1128         40          0          0          0       7700   os_mutex.o
       168         18          0          0          0       2650   os_prio.o
       778         28          0          0          0       5436   os_sem.o
      1576        222          0          0          0       4727   os_stat.o
      2076        138          0          0          0      11007   os_task.o
       844         52          0          0          0       6121   os_tick.o
       180         14          0          0          0       2057   os_time.o
      1944        260          0          0          0      11663   os_tmr.o
         0          0          0        164       1368      16406   os_var.o
        64         26        392          0       6144       1016   startup_stm32f405xx.o
       184         36          0          9          0       5144   stm32f4xx_hal.o
       448         36          0          0          0      37531   stm32f4xx_hal_cortex.o
      1276         16          8          0          0       6942   stm32f4xx_hal_dma.o
       570         50          0          0          0       4048   stm32f4xx_hal_gpio.o
      1744         88          0          0          0       6804   stm32f4xx_hal_rcc.o
       376         20          0          0          0        949   stm32f4xx_hal_rcc_ex.o
      2432         44          0          0          0      18458   stm32f4xx_hal_uart.o
        84         16         24          4          0       1823   system_stm32f4xx.o
      1108        118          0          0         64      11942   wdma.o
      1534        118          0          0         64       9326   wgpio.o
        34          0          0          0          0       4349   wit.o
       636         74          0          0        216       4393   wled.o
       586         62          0          0       1080      10051   wserial.o
      4406        128         77         26          0      17392   wsprintf.o
       468          0          0          0          0       7088   wstr.o
       514         36          0          0         48       3901   wsys.o
      2020        122          0          4         28      13094   wuart.o

    ----------------------------------------------------------------------
     30976       2500        996        224      15312     957174   Object Totals
         0          0         32          0          0          0   (incl. Generated)
        36          0          3          5          0          0   (incl. Padding)

    ----------------------------------------------------------------------

      Code (inc. data)   RO Data    RW Data    ZI Data      Debug   Library Member Name

         8          0          0          0          0         68   __main.o
         0          0          0          0          0          0   __rtentry.o
        12          0          0          0          0          0   __rtentry2.o
         6          0          0          0          0          0   __rtentry4.o
        52          8          0          0          0          0   __scatter.o
        26          0          0          0          0          0   __scatter_copy.o
        28          0          0          0          0          0   __scatter_zi.o
        10          0          0          0          0         68   defsig_exit.o
        50          0          0          0          0         88   defsig_general.o
        80         58          0          0          0         76   defsig_rtmem_inner.o
        14          0          0          0          0         80   defsig_rtmem_outer.o
        18          0          0          0          0         80   exit.o
        94          0          0          0          0         80   h1_alloc.o
        52          0          0          0          0         68   h1_extend.o
        78          0          0          0          0         80   h1_free.o
        14          0          0          0          0         84   h1_init.o
         6          0          0          0          0        152   heapauxi.o
         4          0          0          0          0        136   hguard.o
         0          0          0          0          0          0   indicate_semi.o
       138          0          0          0          0        168   init_alloc.o
         2          0          0          0          0          0   libinit.o
        10          0          0          0          0          0   libinit2.o
         2          0          0          0          0          0   libshutdown.o
         2          0          0          0          0          0   libshutdown2.o
         8          4          0          0         96         68   libspace.o
       238          0          0          0          0        100   lludivv7m.o
         0          0          0          0          0          0   maybetermalloc1.o
         8          4          0          0          0         68   rt_heap_descriptor_intlibspace.o
        78          0          0          0          0         80   rt_memclr_w.o
         2          0          0          0          0          0   rtexit.o
        10          0          0          0          0          0   rtexit2.o
        12          4          0          0          0         68   sys_exit.o
        74          0          0          0          0         80   sys_stackheap_outer.o
        14          0          0          0          0         76   sys_wrch.o
         2          0          0          0          0         68   use_no_semi.o
       826         16          0          0          0        348   daddsub_clz.o
        24          0          0          0          0         68   dcmpi.o
       120          4          0          0          0         92   deqf.o
        94          4          0          0          0         92   dfix.o
        46          0          0          0          0         68   dflt_clz.o
       120          4          0          0          0         92   dleqf.o
       340         12          0          0          0        104   dmul.o
       156          4          0          0          0         92   dnaninf.o
        12          0          0          0          0         68   dretinf.o
       108          0          0          0          0         80   drleqf.o
         0          0          0          0          0          0   usenofp.o

    ----------------------------------------------------------------------
      3008        122          0          0         96       2940   Library Totals
        10          0          0          0          0          0   (incl. Padding)

    ----------------------------------------------------------------------

      Code (inc. data)   RO Data    RW Data    ZI Data      Debug   Library Name

      1152         78          0          0         96       1836   c_w.l
      1846         44          0          0          0       1104   fz_ws.l

    ----------------------------------------------------------------------
      3008        122          0          0         96       2940   Library Totals

    ----------------------------------------------------------------------

==============================================================================


      Code (inc. data)   RO Data    RW Data    ZI Data      Debug   

     33984       2622        996        224      15408     946226   Grand Totals
     33984       2622        996        224      15408     946226   ELF Image Totals
     33984       2622        996        224          0          0   ROM Totals

==============================================================================

    Total RO  Size (Code + RO Data)                34980 (  34.16kB)
    Total RW  Size (RW Data + ZI Data)             15632 (  15.27kB)
    Total ROM Size (Code + RO Data + RW Data)      35204 (  34.38kB)

==============================================================================

